(lp0
ccopy_reg
_reconstructor
p1
(craga
Raga
p2
c__builtin__
object
p3
Ntp4
Rp5
(dp6
S'aroha'
p7
g1
(cnote_list
NoteList
p8
g3
Ntp9
Rp10
(dp11
S'notes'
p12
(lp13
g1
(cnote
Note
p14
g3
Ntp15
Rp16
(dp17
S'sulfege'
p18
I0
sS'octave'
p19
I0
sbag1
(g14
g3
Ntp20
Rp21
(dp22
g18
I5
sg19
I0
sbag1
(g14
g3
Ntp23
Rp24
(dp25
g18
I7
sg19
I0
sbag1
(g14
g3
Ntp26
Rp27
(dp28
g18
I9
sg19
I0
sbag1
(g14
g3
Ntp29
Rp30
(dp31
g18
I11
sg19
I0
sbag1
(g14
g3
Ntp32
Rp33
(dp34
g18
I0
sg19
I1
sbasbsS'avroha'
p35
g1
(g8
g3
Ntp36
Rp37
(dp38
g12
(lp39
g1
(g14
g3
Ntp40
Rp41
(dp42
g18
I1
sg19
I1
sbag1
(g14
g3
Ntp43
Rp44
(dp45
g18
I11
sg19
I0
sbag1
(g14
g3
Ntp46
Rp47
(dp48
g18
I8
sg19
I0
sbag1
(g14
g3
Ntp49
Rp50
(dp51
g18
I7
sg19
I0
sbag1
(g14
g3
Ntp52
Rp53
(dp54
g18
I6
sg19
I0
sbag1
(g14
g3
Ntp55
Rp56
(dp57
g18
I4
sg19
I0
sbag1
(g14
g3
Ntp58
Rp59
(dp60
g18
I1
sg19
I0
sbag1
(g14
g3
Ntp61
Rp62
(dp63
g18
I0
sg19
I0
sbasbsbag1
(g2
g3
Ntp64
Rp65
(dp66
g7
g1
(g8
g3
Ntp67
Rp68
(dp69
g12
(lp70
g1
(g14
g3
Ntp71
Rp72
(dp73
g18
I0
sg19
I0
sbag1
(g14
g3
Ntp74
Rp75
(dp76
g18
I2
sg19
I0
sbag1
(g14
g3
Ntp77
Rp78
(dp79
g18
I4
sg19
I0
sbag1
(g14
g3
Ntp80
Rp81
(dp82
g18
I5
sg19
I0
sbag1
(g14
g3
Ntp83
Rp84
(dp85
g18
I7
sg19
I0
sbag1
(g14
g3
Ntp86
Rp87
(dp88
g18
I9
sg19
I0
sbag1
(g14
g3
Ntp89
Rp90
(dp91
g18
I10
sg19
I0
sbag1
(g14
g3
Ntp92
Rp93
(dp94
g18
I0
sg19
I1
sbasbsg35
g1
(g8
g3
Ntp95
Rp96
(dp97
g12
(lp98
g1
(g14
g3
Ntp99
Rp100
(dp101
g18
I0
sg19
I1
sbag1
(g14
g3
Ntp102
Rp103
(dp104
g18
I9
sg19
I0
sbag1
(g14
g3
Ntp105
Rp106
(dp107
g18
I7
sg19
I0
sbag1
(g14
g3
Ntp108
Rp109
(dp110
g18
I4
sg19
I0
sbag1
(g14
g3
Ntp111
Rp112
(dp113
g18
I2
sg19
I0
sbag1
(g14
g3
Ntp114
Rp115
(dp116
g18
I0
sg19
I0
sbasbsbag1
(g2
g3
Ntp117
Rp118
(dp119
g7
g1
(g8
g3
Ntp120
Rp121
(dp122
g12
(lp123
g1
(g14
g3
Ntp124
Rp125
(dp126
g18
I0
sg19
I0
sbag1
(g14
g3
Ntp127
Rp128
(dp129
g18
I4
sg19
I0
sbag1
(g14
g3
Ntp130
Rp131
(dp132
g18
I7
sg19
I0
sbag1
(g14
g3
Ntp133
Rp134
(dp135
g18
I9
sg19
I0
sbag1
(g14
g3
Ntp136
Rp137
(dp138
g18
I10
sg19
I0
sbag1
(g14
g3
Ntp139
Rp140
(dp141
g18
I0
sg19
I1
sbasbsg35
g1
(g8
g3
Ntp142
Rp143
(dp144
g12
(lp145
g1
(g14
g3
Ntp146
Rp147
(dp148
g18
I0
sg19
I1
sbag1
(g14
g3
Ntp149
Rp150
(dp151
g18
I10
sg19
I0
sbag1
(g14
g3
Ntp152
Rp153
(dp154
g18
I9
sg19
I0
sbag1
(g14
g3
Ntp155
Rp156
(dp157
g18
I7
sg19
I0
sbag1
(g14
g3
Ntp158
Rp159
(dp160
g18
I4
sg19
I0
sbag1
(g14
g3
Ntp161
Rp162
(dp163
g18
I1
sg19
I0
sbag1
(g14
g3
Ntp164
Rp165
(dp166
g18
I0
sg19
I0
sbasbsbag1
(g2
g3
Ntp167
Rp168
(dp169
g7
g1
(g8
g3
Ntp170
Rp171
(dp172
g12
(lp173
g1
(g14
g3
Ntp174
Rp175
(dp176
g18
I0
sg19
I0
sbag1
(g14
g3
Ntp177
Rp178
(dp179
g18
I2
sg19
I0
sbag1
(g14
g3
Ntp180
Rp181
(dp182
g18
I4
sg19
I0
sbag1
(g14
g3
Ntp183
Rp184
(dp185
g18
I7
sg19
I0
sbag1
(g14
g3
Ntp186
Rp187
(dp188
g18
I11
sg19
I0
sbag1
(g14
g3
Ntp189
Rp190
(dp191
g18
I0
sg19
I1
sbasbsg35
g1
(g8
g3
Ntp192
Rp193
(dp194
g12
(lp195
g1
(g14
g3
Ntp196
Rp197
(dp198
g18
I0
sg19
I1
sbag1
(g14
g3
Ntp199
Rp200
(dp201
g18
I11
sg19
I0
sbag1
(g14
g3
Ntp202
Rp203
(dp204
g18
I7
sg19
I0
sbag1
(g14
g3
Ntp205
Rp206
(dp207
g18
I4
sg19
I0
sbag1
(g14
g3
Ntp208
Rp209
(dp210
g18
I2
sg19
I0
sbag1
(g14
g3
Ntp211
Rp212
(dp213
g18
I0
sg19
I0
sbasbsbag1
(g2
g3
Ntp214
Rp215
(dp216
g7
g1
(g8
g3
Ntp217
Rp218
(dp219
g12
(lp220
g1
(g14
g3
Ntp221
Rp222
(dp223
g18
I11
sg19
I-1
sbag1
(g14
g3
Ntp224
Rp225
(dp226
g18
I0
sg19
I0
sbag1
(g14
g3
Ntp227
Rp228
(dp229
g18
I3
sg19
I0
sbag1
(g14
g3
Ntp230
Rp231
(dp232
g18
I6
sg19
I0
sbag1
(g14
g3
Ntp233
Rp234
(dp235
g18
I7
sg19
I0
sbag1
(g14
g3
Ntp236
Rp237
(dp238
g18
I11
sg19
I0
sbag1
(g14
g3
Ntp239
Rp240
(dp241
g18
I0
sg19
I1
sbasbsg35
g1
(g8
g3
Ntp242
Rp243
(dp244
g12
(lp245
g1
(g14
g3
Ntp246
Rp247
(dp248
g18
I0
sg19
I1
sbag1
(g14
g3
Ntp249
Rp250
(dp251
g18
I11
sg19
I0
sbag1
(g14
g3
Ntp252
Rp253
(dp254
g18
I8
sg19
I0
sbag1
(g14
g3
Ntp255
Rp256
(dp257
g18
I7
sg19
I0
sbag1
(g14
g3
Ntp258
Rp259
(dp260
g18
I6
sg19
I0
sbag1
(g14
g3
Ntp261
Rp262
(dp263
g18
I3
sg19
I0
sbag1
(g14
g3
Ntp264
Rp265
(dp266
g18
I1
sg19
I0
sbag1
(g14
g3
Ntp267
Rp268
(dp269
g18
I0
sg19
I0
sbasbsbag1
(g2
g3
Ntp270
Rp271
(dp272
g7
g1
(g8
g3
Ntp273
Rp274
(dp275
g12
(lp276
g1
(g14
g3
Ntp277
Rp278
(dp279
g18
I10
sg19
I-1
sbag1
(g14
g3
Ntp280
Rp281
(dp282
g18
I0
sg19
I0
sbag1
(g14
g3
Ntp283
Rp284
(dp285
g18
I4
sg19
I0
sbag1
(g14
g3
Ntp286
Rp287
(dp288
g18
I6
sg19
I0
sbag1
(g14
g3
Ntp289
Rp290
(dp291
g18
I7
sg19
I0
sbag1
(g14
g3
Ntp292
Rp293
(dp294
g18
I10
sg19
I0
sbag1
(g14
g3
Ntp295
Rp296
(dp297
g18
I0
sg19
I1
sbasbsg35
g1
(g8
g3
Ntp298
Rp299
(dp300
g12
(lp301
g1
(g14
g3
Ntp302
Rp303
(dp304
g18
I0
sg19
I1
sbag1
(g14
g3
Ntp305
Rp306
(dp307
g18
I10
sg19
I0
sbag1
(g14
g3
Ntp308
Rp309
(dp310
g18
I9
sg19
I0
sbag1
(g14
g3
Ntp311
Rp312
(dp313
g18
I7
sg19
I0
sbag1
(g14
g3
Ntp314
Rp315
(dp316
g18
I6
sg19
I0
sbag1
(g14
g3
Ntp317
Rp318
(dp319
g18
I4
sg19
I0
sbag1
(g14
g3
Ntp320
Rp321
(dp322
g18
I2
sg19
I0
sbag1
(g14
g3
Ntp323
Rp324
(dp325
g18
I0
sg19
I0
sbasbsbag1
(g2
g3
Ntp326
Rp327
(dp328
g7
g1
(g8
g3
Ntp329
Rp330
(dp331
g12
(lp332
g1
(g14
g3
Ntp333
Rp334
(dp335
g18
I0
sg19
I0
sbag1
(g14
g3
Ntp336
Rp337
(dp338
g18
I2
sg19
I0
sbag1
(g14
g3
Ntp339
Rp340
(dp341
g18
I4
sg19
I0
sbag1
(g14
g3
Ntp342
Rp343
(dp344
g18
I5
sg19
I0
sbag1
(g14
g3
Ntp345
Rp346
(dp347
g18
I9
sg19
I0
sbag1
(g14
g3
Ntp348
Rp349
(dp350
g18
I11
sg19
I0
sbag1
(g14
g3
Ntp351
Rp352
(dp353
g18
I0
sg19
I1
sbasbsg35
g1
(g8
g3
Ntp354
Rp355
(dp356
g12
(lp357
g1
(g14
g3
Ntp358
Rp359
(dp360
g18
I0
sg19
I1
sbag1
(g14
g3
Ntp361
Rp362
(dp363
g18
I11
sg19
I0
sbag1
(g14
g3
Ntp364
Rp365
(dp366
g18
I9
sg19
I0
sbag1
(g14
g3
Ntp367
Rp368
(dp369
g18
I5
sg19
I0
sbag1
(g14
g3
Ntp370
Rp371
(dp372
g18
I4
sg19
I0
sbag1
(g14
g3
Ntp373
Rp374
(dp375
g18
I2
sg19
I0
sbag1
(g14
g3
Ntp376
Rp377
(dp378
g18
I0
sg19
I0
sbasbsbag1
(g2
g3
Ntp379
Rp380
(dp381
g7
g1
(g8
g3
Ntp382
Rp383
(dp384
g12
(lp385
g1
(g14
g3
Ntp386
Rp387
(dp388
g18
I0
sg19
I0
sbag1
(g14
g3
Ntp389
Rp390
(dp391
g18
I1
sg19
I0
sbag1
(g14
g3
Ntp392
Rp393
(dp394
g18
I3
sg19
I0
sbag1
(g14
g3
Ntp395
Rp396
(dp397
g18
I6
sg19
I0
sbag1
(g14
g3
Ntp398
Rp399
(dp400
g18
I7
sg19
I0
sbag1
(g14
g3
Ntp401
Rp402
(dp403
g18
I8
sg19
I0
sbag1
(g14
g3
Ntp404
Rp405
(dp406
g18
I11
sg19
I0
sbag1
(g14
g3
Ntp407
Rp408
(dp409
g18
I0
sg19
I1
sbasbsg35
g1
(g8
g3
Ntp410
Rp411
(dp412
g12
(lp413
g1
(g14
g3
Ntp414
Rp415
(dp416
g18
I0
sg19
I1
sbag1
(g14
g3
Ntp417
Rp418
(dp419
g18
I11
sg19
I0
sbag1
(g14
g3
Ntp420
Rp421
(dp422
g18
I8
sg19
I0
sbag1
(g14
g3
Ntp423
Rp424
(dp425
g18
I7
sg19
I0
sbag1
(g14
g3
Ntp426
Rp427
(dp428
g18
I6
sg19
I0
sbag1
(g14
g3
Ntp429
Rp430
(dp431
g18
I4
sg19
I0
sbag1
(g14
g3
Ntp432
Rp433
(dp434
g18
I1
sg19
I0
sbag1
(g14
g3
Ntp435
Rp436
(dp437
g18
I0
sg19
I0
sbasbsbag1
(g2
g3
Ntp438
Rp439
(dp440
g7
g1
(g8
g3
Ntp441
Rp442
(dp443
g12
(lp444
g1
(g14
g3
Ntp445
Rp446
(dp447
g18
I0
sg19
I0
sbag1
(g14
g3
Ntp448
Rp449
(dp450
g18
I2
sg19
I0
sbag1
(g14
g3
Ntp451
Rp452
(dp453
g18
I5
sg19
I0
sbag1
(g14
g3
Ntp454
Rp455
(dp456
g18
I7
sg19
I0
sbag1
(g14
g3
Ntp457
Rp458
(dp459
g18
I8
sg19
I0
sbag1
(g14
g3
Ntp460
Rp461
(dp462
g18
I0
sg19
I1
sbasbsg35
g1
(g8
g3
Ntp463
Rp464
(dp465
g12
(lp466
g1
(g14
g3
Ntp467
Rp468
(dp469
g18
I0
sg19
I1
sbag1
(g14
g3
Ntp470
Rp471
(dp472
g18
I10
sg19
I0
sbag1
(g14
g3
Ntp473
Rp474
(dp475
g18
I8
sg19
I0
sbag1
(g14
g3
Ntp476
Rp477
(dp478
g18
I7
sg19
I0
sbag1
(g14
g3
Ntp479
Rp480
(dp481
g18
I5
sg19
I0
sbag1
(g14
g3
Ntp482
Rp483
(dp484
g18
I3
sg19
I0
sbag1
(g14
g3
Ntp485
Rp486
(dp487
g18
I2
sg19
I0
sbag1
(g14
g3
Ntp488
Rp489
(dp490
g18
I0
sg19
I0
sbasbsbag1
(g2
g3
Ntp491
Rp492
(dp493
g7
g1
(g8
g3
Ntp494
Rp495
(dp496
g12
(lp497
g1
(g14
g3
Ntp498
Rp499
(dp500
g18
I0
sg19
I0
sbag1
(g14
g3
Ntp501
Rp502
(dp503
g18
I2
sg19
I0
sbag1
(g14
g3
Ntp504
Rp505
(dp506
g18
I5
sg19
I0
sbag1
(g14
g3
Ntp507
Rp508
(dp509
g18
I8
sg19
I0
sbag1
(g14
g3
Ntp510
Rp511
(dp512
g18
I11
sg19
I0
sbag1
(g14
g3
Ntp513
Rp514
(dp515
g18
I0
sg19
I1
sbasbsg35
g1
(g8
g3
Ntp516
Rp517
(dp518
g12
(lp519
g1
(g14
g3
Ntp520
Rp521
(dp522
g18
I0
sg19
I1
sbag1
(g14
g3
Ntp523
Rp524
(dp525
g18
I11
sg19
I0
sbag1
(g14
g3
Ntp526
Rp527
(dp528
g18
I8
sg19
I0
sbag1
(g14
g3
Ntp529
Rp530
(dp531
g18
I5
sg19
I0
sbag1
(g14
g3
Ntp532
Rp533
(dp534
g18
I2
sg19
I0
sbag1
(g14
g3
Ntp535
Rp536
(dp537
g18
I0
sg19
I0
sbasbsbag1
(g2
g3
Ntp538
Rp539
(dp540
g7
g1
(g8
g3
Ntp541
Rp542
(dp543
g12
(lp544
g1
(g14
g3
Ntp545
Rp546
(dp547
g18
I0
sg19
I0
sbag1
(g14
g3
Ntp548
Rp549
(dp550
g18
I3
sg19
I0
sbag1
(g14
g3
Ntp551
Rp552
(dp553
g18
I6
sg19
I0
sbag1
(g14
g3
Ntp554
Rp555
(dp556
g18
I9
sg19
I0
sbag1
(g14
g3
Ntp557
Rp558
(dp559
g18
I10
sg19
I0
sbag1
(g14
g3
Ntp560
Rp561
(dp562
g18
I0
sg19
I1
sbasbsg35
g1
(g8
g3
Ntp563
Rp564
(dp565
g12
(lp566
g1
(g14
g3
Ntp567
Rp568
(dp569
g18
I0
sg19
I1
sbag1
(g14
g3
Ntp570
Rp571
(dp572
g18
I10
sg19
I0
sbag1
(g14
g3
Ntp573
Rp574
(dp575
g18
I9
sg19
I0
sbag1
(g14
g3
Ntp576
Rp577
(dp578
g18
I6
sg19
I0
sbag1
(g14
g3
Ntp579
Rp580
(dp581
g18
I3
sg19
I0
sbag1
(g14
g3
Ntp582
Rp583
(dp584
g18
I0
sg19
I0
sbasbsbag1
(g2
g3
Ntp585
Rp586
(dp587
g7
g1
(g8
g3
Ntp588
Rp589
(dp590
g12
(lp591
g1
(g14
g3
Ntp592
Rp593
(dp594
g18
I0
sg19
I0
sbag1
(g14
g3
Ntp595
Rp596
(dp597
g18
I2
sg19
I0
sbag1
(g14
g3
Ntp598
Rp599
(dp600
g18
I3
sg19
I0
sbag1
(g14
g3
Ntp601
Rp602
(dp603
g18
I5
sg19
I0
sbag1
(g14
g3
Ntp604
Rp605
(dp606
g18
I7
sg19
I0
sbag1
(g14
g3
Ntp607
Rp608
(dp609
g18
I8
sg19
I0
sbag1
(g14
g3
Ntp610
Rp611
(dp612
g18
I11
sg19
I0
sbag1
(g14
g3
Ntp613
Rp614
(dp615
g18
I0
sg19
I1
sbasbsg35
g1
(g8
g3
Ntp616
Rp617
(dp618
g12
(lp619
g1
(g14
g3
Ntp620
Rp621
(dp622
g18
I0
sg19
I1
sbag1
(g14
g3
Ntp623
Rp624
(dp625
g18
I11
sg19
I0
sbag1
(g14
g3
Ntp626
Rp627
(dp628
g18
I8
sg19
I0
sbag1
(g14
g3
Ntp629
Rp630
(dp631
g18
I7
sg19
I0
sbag1
(g14
g3
Ntp632
Rp633
(dp634
g18
I5
sg19
I0
sbag1
(g14
g3
Ntp635
Rp636
(dp637
g18
I3
sg19
I0
sbag1
(g14
g3
Ntp638
Rp639
(dp640
g18
I2
sg19
I0
sbag1
(g14
g3
Ntp641
Rp642
(dp643
g18
I0
sg19
I0
sbasbsbag1
(g2
g3
Ntp644
Rp645
(dp646
g7
g1
(g8
g3
Ntp647
Rp648
(dp649
g12
(lp650
g1
(g14
g3
Ntp651
Rp652
(dp653
g18
I0
sg19
I0
sbag1
(g14
g3
Ntp654
Rp655
(dp656
g18
I2
sg19
I0
sbag1
(g14
g3
Ntp657
Rp658
(dp659
g18
I4
sg19
I0
sbag1
(g14
g3
Ntp660
Rp661
(dp662
g18
I7
sg19
I0
sbag1
(g14
g3
Ntp663
Rp664
(dp665
g18
I8
sg19
I0
sbag1
(g14
g3
Ntp666
Rp667
(dp668
g18
I11
sg19
I0
sbag1
(g14
g3
Ntp669
Rp670
(dp671
g18
I0
sg19
I1
sbasbsg35
g1
(g8
g3
Ntp672
Rp673
(dp674
g12
(lp675
g1
(g14
g3
Ntp676
Rp677
(dp678
g18
I0
sg19
I1
sbag1
(g14
g3
Ntp679
Rp680
(dp681
g18
I11
sg19
I0
sbag1
(g14
g3
Ntp682
Rp683
(dp684
g18
I8
sg19
I0
sbag1
(g14
g3
Ntp685
Rp686
(dp687
g18
I7
sg19
I0
sbag1
(g14
g3
Ntp688
Rp689
(dp690
g18
I4
sg19
I0
sbag1
(g14
g3
Ntp691
Rp692
(dp693
g18
I2
sg19
I0
sbag1
(g14
g3
Ntp694
Rp695
(dp696
g18
I0
sg19
I0
sbasbsbag1
(g2
g3
Ntp697
Rp698
(dp699
g7
g1
(g8
g3
Ntp700
Rp701
(dp702
g12
(lp703
g1
(g14
g3
Ntp704
Rp705
(dp706
g18
I0
sg19
I0
sbag1
(g14
g3
Ntp707
Rp708
(dp709
g18
I4
sg19
I0
sbag1
(g14
g3
Ntp710
Rp711
(dp712
g18
I5
sg19
I0
sbag1
(g14
g3
Ntp713
Rp714
(dp715
g18
I7
sg19
I0
sbag1
(g14
g3
Ntp716
Rp717
(dp718
g18
I8
sg19
I0
sbag1
(g14
g3
Ntp719
Rp720
(dp721
g18
I11
sg19
I0
sbag1
(g14
g3
Ntp722
Rp723
(dp724
g18
I0
sg19
I1
sbasbsg35
g1
(g8
g3
Ntp725
Rp726
(dp727
g12
(lp728
g1
(g14
g3
Ntp729
Rp730
(dp731
g18
I0
sg19
I1
sbag1
(g14
g3
Ntp732
Rp733
(dp734
g18
I11
sg19
I0
sbag1
(g14
g3
Ntp735
Rp736
(dp737
g18
I8
sg19
I0
sbag1
(g14
g3
Ntp738
Rp739
(dp740
g18
I7
sg19
I0
sbag1
(g14
g3
Ntp741
Rp742
(dp743
g18
I6
sg19
I0
sbag1
(g14
g3
Ntp744
Rp745
(dp746
g18
I4
sg19
I0
sbag1
(g14
g3
Ntp747
Rp748
(dp749
g18
I1
sg19
I0
sbag1
(g14
g3
Ntp750
Rp751
(dp752
g18
I0
sg19
I0
sbasbsbag1
(g2
g3
Ntp753
Rp754
(dp755
g7
g1
(g8
g3
Ntp756
Rp757
(dp758
g12
(lp759
g1
(g14
g3
Ntp760
Rp761
(dp762
g18
I11
sg19
I-1
sbag1
(g14
g3
Ntp763
Rp764
(dp765
g18
I0
sg19
I0
sbag1
(g14
g3
Ntp766
Rp767
(dp768
g18
I3
sg19
I0
sbag1
(g14
g3
Ntp769
Rp770
(dp771
g18
I6
sg19
I0
sbag1
(g14
g3
Ntp772
Rp773
(dp774
g18
I7
sg19
I0
sbag1
(g14
g3
Ntp775
Rp776
(dp777
g18
I11
sg19
I0
sbag1
(g14
g3
Ntp778
Rp779
(dp780
g18
I0
sg19
I1
sbasbsg35
g1
(g8
g3
Ntp781
Rp782
(dp783
g12
(lp784
g1
(g14
g3
Ntp785
Rp786
(dp787
g18
I0
sg19
I1
sbag1
(g14
g3
Ntp788
Rp789
(dp790
g18
I11
sg19
I0
sbag1
(g14
g3
Ntp791
Rp792
(dp793
g18
I9
sg19
I0
sbag1
(g14
g3
Ntp794
Rp795
(dp796
g18
I7
sg19
I0
sbag1
(g14
g3
Ntp797
Rp798
(dp799
g18
I6
sg19
I0
sbag1
(g14
g3
Ntp800
Rp801
(dp802
g18
I3
sg19
I0
sbag1
(g14
g3
Ntp803
Rp804
(dp805
g18
I2
sg19
I0
sbag1
(g14
g3
Ntp806
Rp807
(dp808
g18
I0
sg19
I0
sbasbsbag1
(g2
g3
Ntp809
Rp810
(dp811
g7
g1
(g8
g3
Ntp812
Rp813
(dp814
g12
(lp815
g1
(g14
g3
Ntp816
Rp817
(dp818
g18
I0
sg19
I0
sbag1
(g14
g3
Ntp819
Rp820
(dp821
g18
I4
sg19
I0
sbag1
(g14
g3
Ntp822
Rp823
(dp824
g18
I5
sg19
I0
sbag1
(g14
g3
Ntp825
Rp826
(dp827
g18
I8
sg19
I0
sbag1
(g14
g3
Ntp828
Rp829
(dp830
g18
I11
sg19
I0
sbag1
(g14
g3
Ntp831
Rp832
(dp833
g18
I0
sg19
I1
sbasbsg35
g1
(g8
g3
Ntp834
Rp835
(dp836
g12
(lp837
g1
(g14
g3
Ntp838
Rp839
(dp840
g18
I0
sg19
I1
sbag1
(g14
g3
Ntp841
Rp842
(dp843
g18
I11
sg19
I0
sbag1
(g14
g3
Ntp844
Rp845
(dp846
g18
I8
sg19
I0
sbag1
(g14
g3
Ntp847
Rp848
(dp849
g18
I5
sg19
I0
sbag1
(g14
g3
Ntp850
Rp851
(dp852
g18
I4
sg19
I0
sbag1
(g14
g3
Ntp853
Rp854
(dp855
g18
I0
sg19
I0
sbasbsbag1
(g2
g3
Ntp856
Rp857
(dp858
g7
g1
(g8
g3
Ntp859
Rp860
(dp861
g12
(lp862
g1
(g14
g3
Ntp863
Rp864
(dp865
g18
I10
sg19
I-1
sbag1
(g14
g3
Ntp866
Rp867
(dp868
g18
I0
sg19
I0
sbag1
(g14
g3
Ntp869
Rp870
(dp871
g18
I4
sg19
I0
sbag1
(g14
g3
Ntp872
Rp873
(dp874
g18
I5
sg19
I0
sbag1
(g14
g3
Ntp875
Rp876
(dp877
g18
I9
sg19
I0
sbag1
(g14
g3
Ntp878
Rp879
(dp880
g18
I10
sg19
I0
sbag1
(g14
g3
Ntp881
Rp882
(dp883
g18
I0
sg19
I1
sbasbsg35
g1
(g8
g3
Ntp884
Rp885
(dp886
g12
(lp887
g1
(g14
g3
Ntp888
Rp889
(dp890
g18
I0
sg19
I1
sbag1
(g14
g3
Ntp891
Rp892
(dp893
g18
I10
sg19
I0
sbag1
(g14
g3
Ntp894
Rp895
(dp896
g18
I9
sg19
I0
sbag1
(g14
g3
Ntp897
Rp898
(dp899
g18
I5
sg19
I0
sbag1
(g14
g3
Ntp900
Rp901
(dp902
g18
I4
sg19
I0
sbag1
(g14
g3
Ntp903
Rp904
(dp905
g18
I2
sg19
I0
sbag1
(g14
g3
Ntp906
Rp907
(dp908
g18
I0
sg19
I0
sbasbsbag1
(g2
g3
Ntp909
Rp910
(dp911
g7
g1
(g8
g3
Ntp912
Rp913
(dp914
g12
(lp915
g1
(g14
g3
Ntp916
Rp917
(dp918
g18
I0
sg19
I0
sbag1
(g14
g3
Ntp919
Rp920
(dp921
g18
I2
sg19
I0
sbag1
(g14
g3
Ntp922
Rp923
(dp924
g18
I3
sg19
I0
sbag1
(g14
g3
Ntp925
Rp926
(dp927
g18
I5
sg19
I0
sbag1
(g14
g3
Ntp928
Rp929
(dp930
g18
I7
sg19
I0
sbag1
(g14
g3
Ntp931
Rp932
(dp933
g18
I9
sg19
I0
sbag1
(g14
g3
Ntp934
Rp935
(dp936
g18
I0
sg19
I1
sbasbsg35
g1
(g8
g3
Ntp937
Rp938
(dp939
g12
(lp940
g1
(g14
g3
Ntp941
Rp942
(dp943
g18
I0
sg19
I1
sbag1
(g14
g3
Ntp944
Rp945
(dp946
g18
I10
sg19
I0
sbag1
(g14
g3
Ntp947
Rp948
(dp949
g18
I9
sg19
I0
sbag1
(g14
g3
Ntp950
Rp951
(dp952
g18
I7
sg19
I0
sbag1
(g14
g3
Ntp953
Rp954
(dp955
g18
I5
sg19
I0
sbag1
(g14
g3
Ntp956
Rp957
(dp958
g18
I3
sg19
I0
sbag1
(g14
g3
Ntp959
Rp960
(dp961
g18
I2
sg19
I0
sbag1
(g14
g3
Ntp962
Rp963
(dp964
g18
I0
sg19
I0
sbasbsbag1
(g2
g3
Ntp965
Rp966
(dp967
g7
g1
(g8
g3
Ntp968
Rp969
(dp970
g12
(lp971
g1
(g14
g3
Ntp972
Rp973
(dp974
g18
I11
sg19
I-1
sbag1
(g14
g3
Ntp975
Rp976
(dp977
g18
I0
sg19
I0
sbag1
(g14
g3
Ntp978
Rp979
(dp980
g18
I3
sg19
I0
sbag1
(g14
g3
Ntp981
Rp982
(dp983
g18
I5
sg19
I0
sbag1
(g14
g3
Ntp984
Rp985
(dp986
g18
I7
sg19
I0
sbag1
(g14
g3
Ntp987
Rp988
(dp989
g18
I11
sg19
I0
sbag1
(g14
g3
Ntp990
Rp991
(dp992
g18
I0
sg19
I1
sbasbsg35
g1
(g8
g3
Ntp993
Rp994
(dp995
g12
(lp996
g1
(g14
g3
Ntp997
Rp998
(dp999
g18
I0
sg19
I1
sbag1
(g14
g3
Ntp1000
Rp1001
(dp1002
g18
I11
sg19
I0
sbag1
(g14
g3
Ntp1003
Rp1004
(dp1005
g18
I9
sg19
I0
sbag1
(g14
g3
Ntp1006
Rp1007
(dp1008
g18
I7
sg19
I0
sbag1
(g14
g3
Ntp1009
Rp1010
(dp1011
g18
I5
sg19
I0
sbag1
(g14
g3
Ntp1012
Rp1013
(dp1014
g18
I3
sg19
I0
sbag1
(g14
g3
Ntp1015
Rp1016
(dp1017
g18
I2
sg19
I0
sbag1
(g14
g3
Ntp1018
Rp1019
(dp1020
g18
I0
sg19
I0
sbasbsbag1
(g2
g3
Ntp1021
Rp1022
(dp1023
g7
g1
(g8
g3
Ntp1024
Rp1025
(dp1026
g12
(lp1027
g1
(g14
g3
Ntp1028
Rp1029
(dp1030
g18
I0
sg19
I0
sbag1
(g14
g3
Ntp1031
Rp1032
(dp1033
g18
I1
sg19
I0
sbag1
(g14
g3
Ntp1034
Rp1035
(dp1036
g18
I3
sg19
I0
sbag1
(g14
g3
Ntp1037
Rp1038
(dp1039
g18
I6
sg19
I0
sbag1
(g14
g3
Ntp1040
Rp1041
(dp1042
g18
I8
sg19
I0
sbag1
(g14
g3
Ntp1043
Rp1044
(dp1045
g18
I11
sg19
I0
sbag1
(g14
g3
Ntp1046
Rp1047
(dp1048
g18
I0
sg19
I1
sbasbsg35
g1
(g8
g3
Ntp1049
Rp1050
(dp1051
g12
(lp1052
g1
(g14
g3
Ntp1053
Rp1054
(dp1055
g18
I0
sg19
I1
sbag1
(g14
g3
Ntp1056
Rp1057
(dp1058
g18
I11
sg19
I0
sbag1
(g14
g3
Ntp1059
Rp1060
(dp1061
g18
I8
sg19
I0
sbag1
(g14
g3
Ntp1062
Rp1063
(dp1064
g18
I7
sg19
I0
sbag1
(g14
g3
Ntp1065
Rp1066
(dp1067
g18
I6
sg19
I0
sbag1
(g14
g3
Ntp1068
Rp1069
(dp1070
g18
I3
sg19
I0
sbag1
(g14
g3
Ntp1071
Rp1072
(dp1073
g18
I1
sg19
I0
sbag1
(g14
g3
Ntp1074
Rp1075
(dp1076
g18
I0
sg19
I0
sbasbsbag1
(g2
g3
Ntp1077
Rp1078
(dp1079
g7
g1
(g8
g3
Ntp1080
Rp1081
(dp1082
g12
(lp1083
g1
(g14
g3
Ntp1084
Rp1085
(dp1086
g18
I8
sg19
I-1
sbag1
(g14
g3
Ntp1087
Rp1088
(dp1089
g18
I0
sg19
I0
sbag1
(g14
g3
Ntp1090
Rp1091
(dp1092
g18
I1
sg19
I0
sbag1
(g14
g3
Ntp1093
Rp1094
(dp1095
g18
I3
sg19
I0
sbag1
(g14
g3
Ntp1096
Rp1097
(dp1098
g18
I7
sg19
I0
sbag1
(g14
g3
Ntp1099
Rp1100
(dp1101
g18
I8
sg19
I0
sbag1
(g14
g3
Ntp1102
Rp1103
(dp1104
g18
I0
sg19
I1
sbasbsg35
g1
(g8
g3
Ntp1105
Rp1106
(dp1107
g12
(lp1108
g1
(g14
g3
Ntp1109
Rp1110
(dp1111
g18
I0
sg19
I1
sbag1
(g14
g3
Ntp1112
Rp1113
(dp1114
g18
I8
sg19
I0
sbag1
(g14
g3
Ntp1115
Rp1116
(dp1117
g18
I7
sg19
I0
sbag1
(g14
g3
Ntp1118
Rp1119
(dp1120
g18
I3
sg19
I0
sbag1
(g14
g3
Ntp1121
Rp1122
(dp1123
g18
I1
sg19
I0
sbag1
(g14
g3
Ntp1124
Rp1125
(dp1126
g18
I0
sg19
I0
sbasbsbag1
(g2
g3
Ntp1127
Rp1128
(dp1129
g7
g1
(g8
g3
Ntp1130
Rp1131
(dp1132
g12
(lp1133
g1
(g14
g3
Ntp1134
Rp1135
(dp1136
g18
I0
sg19
I0
sbag1
(g14
g3
Ntp1137
Rp1138
(dp1139
g18
I1
sg19
I0
sbag1
(g14
g3
Ntp1140
Rp1141
(dp1142
g18
I4
sg19
I0
sbag1
(g14
g3
Ntp1143
Rp1144
(dp1145
g18
I5
sg19
I0
sbag1
(g14
g3
Ntp1146
Rp1147
(dp1148
g18
I6
sg19
I0
sbag1
(g14
g3
Ntp1149
Rp1150
(dp1151
g18
I10
sg19
I0
sbag1
(g14
g3
Ntp1152
Rp1153
(dp1154
g18
I0
sg19
I1
sbasbsg35
g1
(g8
g3
Ntp1155
Rp1156
(dp1157
g12
(lp1158
g1
(g14
g3
Ntp1159
Rp1160
(dp1161
g18
I0
sg19
I1
sbag1
(g14
g3
Ntp1162
Rp1163
(dp1164
g18
I10
sg19
I0
sbag1
(g14
g3
Ntp1165
Rp1166
(dp1167
g18
I6
sg19
I0
sbag1
(g14
g3
Ntp1168
Rp1169
(dp1170
g18
I5
sg19
I0
sbag1
(g14
g3
Ntp1171
Rp1172
(dp1173
g18
I4
sg19
I0
sbag1
(g14
g3
Ntp1174
Rp1175
(dp1176
g18
I1
sg19
I0
sbag1
(g14
g3
Ntp1177
Rp1178
(dp1179
g18
I0
sg19
I0
sbasbsbag1
(g2
g3
Ntp1180
Rp1181
(dp1182
g7
g1
(g8
g3
Ntp1183
Rp1184
(dp1185
g12
(lp1186
g1
(g14
g3
Ntp1187
Rp1188
(dp1189
g18
I0
sg19
I0
sbag1
(g14
g3
Ntp1190
Rp1191
(dp1192
g18
I2
sg19
I0
sbag1
(g14
g3
Ntp1193
Rp1194
(dp1195
g18
I5
sg19
I0
sbag1
(g14
g3
Ntp1196
Rp1197
(dp1198
g18
I7
sg19
I0
sbag1
(g14
g3
Ntp1199
Rp1200
(dp1201
g18
I10
sg19
I0
sbag1
(g14
g3
Ntp1202
Rp1203
(dp1204
g18
I0
sg19
I1
sbasbsg35
g1
(g8
g3
Ntp1205
Rp1206
(dp1207
g12
(lp1208
g1
(g14
g3
Ntp1209
Rp1210
(dp1211
g18
I0
sg19
I1
sbag1
(g14
g3
Ntp1212
Rp1213
(dp1214
g18
I10
sg19
I0
sbag1
(g14
g3
Ntp1215
Rp1216
(dp1217
g18
I8
sg19
I0
sbag1
(g14
g3
Ntp1218
Rp1219
(dp1220
g18
I7
sg19
I0
sbag1
(g14
g3
Ntp1221
Rp1222
(dp1223
g18
I5
sg19
I0
sbag1
(g14
g3
Ntp1224
Rp1225
(dp1226
g18
I3
sg19
I0
sbag1
(g14
g3
Ntp1227
Rp1228
(dp1229
g18
I2
sg19
I0
sbag1
(g14
g3
Ntp1230
Rp1231
(dp1232
g18
I0
sg19
I0
sbasbsbag1
(g2
g3
Ntp1233
Rp1234
(dp1235
g7
g1
(g8
g3
Ntp1236
Rp1237
(dp1238
g12
(lp1239
g1
(g14
g3
Ntp1240
Rp1241
(dp1242
g18
I0
sg19
I0
sbag1
(g14
g3
Ntp1243
Rp1244
(dp1245
g18
I1
sg19
I0
sbag1
(g14
g3
Ntp1246
Rp1247
(dp1248
g18
I3
sg19
I0
sbag1
(g14
g3
Ntp1249
Rp1250
(dp1251
g18
I5
sg19
I0
sbag1
(g14
g3
Ntp1252
Rp1253
(dp1254
g18
I7
sg19
I0
sbag1
(g14
g3
Ntp1255
Rp1256
(dp1257
g18
I8
sg19
I0
sbag1
(g14
g3
Ntp1258
Rp1259
(dp1260
g18
I0
sg19
I1
sbasbsg35
g1
(g8
g3
Ntp1261
Rp1262
(dp1263
g12
(lp1264
g1
(g14
g3
Ntp1265
Rp1266
(dp1267
g18
I0
sg19
I1
sbag1
(g14
g3
Ntp1268
Rp1269
(dp1270
g18
I10
sg19
I0
sbag1
(g14
g3
Ntp1271
Rp1272
(dp1273
g18
I8
sg19
I0
sbag1
(g14
g3
Ntp1274
Rp1275
(dp1276
g18
I7
sg19
I0
sbag1
(g14
g3
Ntp1277
Rp1278
(dp1279
g18
I5
sg19
I0
sbag1
(g14
g3
Ntp1280
Rp1281
(dp1282
g18
I3
sg19
I0
sbag1
(g14
g3
Ntp1283
Rp1284
(dp1285
g18
I1
sg19
I0
sbag1
(g14
g3
Ntp1286
Rp1287
(dp1288
g18
I0
sg19
I0
sbasbsbag1
(g2
g3
Ntp1289
Rp1290
(dp1291
g7
g1
(g8
g3
Ntp1292
Rp1293
(dp1294
g12
(lp1295
g1
(g14
g3
Ntp1296
Rp1297
(dp1298
g18
I0
sg19
I0
sbag1
(g14
g3
Ntp1299
Rp1300
(dp1301
g18
I2
sg19
I0
sbag1
(g14
g3
Ntp1302
Rp1303
(dp1304
g18
I4
sg19
I0
sbag1
(g14
g3
Ntp1305
Rp1306
(dp1307
g18
I5
sg19
I0
sbag1
(g14
g3
Ntp1308
Rp1309
(dp1310
g18
I7
sg19
I0
sbag1
(g14
g3
Ntp1311
Rp1312
(dp1313
g18
I8
sg19
I0
sbag1
(g14
g3
Ntp1314
Rp1315
(dp1316
g18
I10
sg19
I0
sbag1
(g14
g3
Ntp1317
Rp1318
(dp1319
g18
I0
sg19
I1
sbasbsg35
g1
(g8
g3
Ntp1320
Rp1321
(dp1322
g12
(lp1323
g1
(g14
g3
Ntp1324
Rp1325
(dp1326
g18
I0
sg19
I1
sbag1
(g14
g3
Ntp1327
Rp1328
(dp1329
g18
I10
sg19
I0
sbag1
(g14
g3
Ntp1330
Rp1331
(dp1332
g18
I8
sg19
I0
sbag1
(g14
g3
Ntp1333
Rp1334
(dp1335
g18
I7
sg19
I0
sbag1
(g14
g3
Ntp1336
Rp1337
(dp1338
g18
I5
sg19
I0
sbag1
(g14
g3
Ntp1339
Rp1340
(dp1341
g18
I4
sg19
I0
sbag1
(g14
g3
Ntp1342
Rp1343
(dp1344
g18
I2
sg19
I0
sbag1
(g14
g3
Ntp1345
Rp1346
(dp1347
g18
I0
sg19
I0
sbasbsbag1
(g2
g3
Ntp1348
Rp1349
(dp1350
g7
g1
(g8
g3
Ntp1351
Rp1352
(dp1353
g12
(lp1354
g1
(g14
g3
Ntp1355
Rp1356
(dp1357
g18
I0
sg19
I0
sbag1
(g14
g3
Ntp1358
Rp1359
(dp1360
g18
I1
sg19
I0
sbag1
(g14
g3
Ntp1361
Rp1362
(dp1363
g18
I5
sg19
I0
sbag1
(g14
g3
Ntp1364
Rp1365
(dp1366
g18
I7
sg19
I0
sbag1
(g14
g3
Ntp1367
Rp1368
(dp1369
g18
I8
sg19
I0
sbag1
(g14
g3
Ntp1370
Rp1371
(dp1372
g18
I0
sg19
I1
sbasbsg35
g1
(g8
g3
Ntp1373
Rp1374
(dp1375
g12
(lp1376
g1
(g14
g3
Ntp1377
Rp1378
(dp1379
g18
I0
sg19
I1
sbag1
(g14
g3
Ntp1380
Rp1381
(dp1382
g18
I10
sg19
I0
sbag1
(g14
g3
Ntp1383
Rp1384
(dp1385
g18
I8
sg19
I0
sbag1
(g14
g3
Ntp1386
Rp1387
(dp1388
g18
I7
sg19
I0
sbag1
(g14
g3
Ntp1389
Rp1390
(dp1391
g18
I5
sg19
I0
sbag1
(g14
g3
Ntp1392
Rp1393
(dp1394
g18
I3
sg19
I0
sbag1
(g14
g3
Ntp1395
Rp1396
(dp1397
g18
I1
sg19
I0
sbag1
(g14
g3
Ntp1398
Rp1399
(dp1400
g18
I0
sg19
I0
sbasbsbag1
(g2
g3
Ntp1401
Rp1402
(dp1403
g7
g1
(g8
g3
Ntp1404
Rp1405
(dp1406
g12
(lp1407
g1
(g14
g3
Ntp1408
Rp1409
(dp1410
g18
I0
sg19
I0
sbag1
(g14
g3
Ntp1411
Rp1412
(dp1413
g18
I1
sg19
I0
sbag1
(g14
g3
Ntp1414
Rp1415
(dp1416
g18
I5
sg19
I0
sbag1
(g14
g3
Ntp1417
Rp1418
(dp1419
g18
I7
sg19
I0
sbag1
(g14
g3
Ntp1420
Rp1421
(dp1422
g18
I9
sg19
I0
sbag1
(g14
g3
Ntp1423
Rp1424
(dp1425
g18
I10
sg19
I0
sbag1
(g14
g3
Ntp1426
Rp1427
(dp1428
g18
I0
sg19
I1
sbasbsg35
g1
(g8
g3
Ntp1429
Rp1430
(dp1431
g12
(lp1432
g1
(g14
g3
Ntp1433
Rp1434
(dp1435
g18
I0
sg19
I1
sbag1
(g14
g3
Ntp1436
Rp1437
(dp1438
g18
I10
sg19
I0
sbag1
(g14
g3
Ntp1439
Rp1440
(dp1441
g18
I9
sg19
I0
sbag1
(g14
g3
Ntp1442
Rp1443
(dp1444
g18
I7
sg19
I0
sbag1
(g14
g3
Ntp1445
Rp1446
(dp1447
g18
I5
sg19
I0
sbag1
(g14
g3
Ntp1448
Rp1449
(dp1450
g18
I3
sg19
I0
sbag1
(g14
g3
Ntp1451
Rp1452
(dp1453
g18
I1
sg19
I0
sbag1
(g14
g3
Ntp1454
Rp1455
(dp1456
g18
I0
sg19
I0
sbasbsbag1
(g2
g3
Ntp1457
Rp1458
(dp1459
g7
g1
(g8
g3
Ntp1460
Rp1461
(dp1462
g12
(lp1463
g1
(g14
g3
Ntp1464
Rp1465
(dp1466
g18
I10
sg19
I-1
sbag1
(g14
g3
Ntp1467
Rp1468
(dp1469
g18
I0
sg19
I0
sbag1
(g14
g3
Ntp1470
Rp1471
(dp1472
g18
I3
sg19
I0
sbag1
(g14
g3
Ntp1473
Rp1474
(dp1475
g18
I5
sg19
I0
sbag1
(g14
g3
Ntp1476
Rp1477
(dp1478
g18
I7
sg19
I0
sbag1
(g14
g3
Ntp1479
Rp1480
(dp1481
g18
I10
sg19
I0
sbag1
(g14
g3
Ntp1482
Rp1483
(dp1484
g18
I0
sg19
I1
sbasbsg35
g1
(g8
g3
Ntp1485
Rp1486
(dp1487
g12
(lp1488
g1
(g14
g3
Ntp1489
Rp1490
(dp1491
g18
I0
sg19
I1
sbag1
(g14
g3
Ntp1492
Rp1493
(dp1494
g18
I10
sg19
I0
sbag1
(g14
g3
Ntp1495
Rp1496
(dp1497
g18
I9
sg19
I0
sbag1
(g14
g3
Ntp1498
Rp1499
(dp1500
g18
I7
sg19
I0
sbag1
(g14
g3
Ntp1501
Rp1502
(dp1503
g18
I5
sg19
I0
sbag1
(g14
g3
Ntp1504
Rp1505
(dp1506
g18
I3
sg19
I0
sbag1
(g14
g3
Ntp1507
Rp1508
(dp1509
g18
I2
sg19
I0
sbag1
(g14
g3
Ntp1510
Rp1511
(dp1512
g18
I0
sg19
I0
sbasbsbag1
(g2
g3
Ntp1513
Rp1514
(dp1515
g7
g1
(g8
g3
Ntp1516
Rp1517
(dp1518
g12
(lp1519
g1
(g14
g3
Ntp1520
Rp1521
(dp1522
g18
I0
sg19
I0
sbag1
(g14
g3
Ntp1523
Rp1524
(dp1525
g18
I1
sg19
I0
sbag1
(g14
g3
Ntp1526
Rp1527
(dp1528
g18
I4
sg19
I0
sbag1
(g14
g3
Ntp1529
Rp1530
(dp1531
g18
I7
sg19
I0
sbag1
(g14
g3
Ntp1532
Rp1533
(dp1534
g18
I9
sg19
I0
sbag1
(g14
g3
Ntp1535
Rp1536
(dp1537
g18
I0
sg19
I1
sbasbsg35
g1
(g8
g3
Ntp1538
Rp1539
(dp1540
g12
(lp1541
g1
(g14
g3
Ntp1542
Rp1543
(dp1544
g18
I0
sg19
I1
sbag1
(g14
g3
Ntp1545
Rp1546
(dp1547
g18
I9
sg19
I0
sbag1
(g14
g3
Ntp1548
Rp1549
(dp1550
g18
I7
sg19
I0
sbag1
(g14
g3
Ntp1551
Rp1552
(dp1553
g18
I4
sg19
I0
sbag1
(g14
g3
Ntp1554
Rp1555
(dp1556
g18
I1
sg19
I0
sbag1
(g14
g3
Ntp1557
Rp1558
(dp1559
g18
I0
sg19
I0
sbasbsbag1
(g2
g3
Ntp1560
Rp1561
(dp1562
g7
g1
(g8
g3
Ntp1563
Rp1564
(dp1565
g12
(lp1566
g1
(g14
g3
Ntp1567
Rp1568
(dp1569
g18
I11
sg19
I-1
sbag1
(g14
g3
Ntp1570
Rp1571
(dp1572
g18
I0
sg19
I0
sbag1
(g14
g3
Ntp1573
Rp1574
(dp1575
g18
I3
sg19
I0
sbag1
(g14
g3
Ntp1576
Rp1577
(dp1578
g18
I5
sg19
I0
sbag1
(g14
g3
Ntp1579
Rp1580
(dp1581
g18
I7
sg19
I0
sbag1
(g14
g3
Ntp1582
Rp1583
(dp1584
g18
I11
sg19
I0
sbag1
(g14
g3
Ntp1585
Rp1586
(dp1587
g18
I0
sg19
I1
sbasbsg35
g1
(g8
g3
Ntp1588
Rp1589
(dp1590
g12
(lp1591
g1
(g14
g3
Ntp1592
Rp1593
(dp1594
g18
I0
sg19
I1
sbag1
(g14
g3
Ntp1595
Rp1596
(dp1597
g18
I11
sg19
I0
sbag1
(g14
g3
Ntp1598
Rp1599
(dp1600
g18
I7
sg19
I0
sbag1
(g14
g3
Ntp1601
Rp1602
(dp1603
g18
I5
sg19
I0
sbag1
(g14
g3
Ntp1604
Rp1605
(dp1606
g18
I3
sg19
I0
sbag1
(g14
g3
Ntp1607
Rp1608
(dp1609
g18
I2
sg19
I0
sbag1
(g14
g3
Ntp1610
Rp1611
(dp1612
g18
I0
sg19
I0
sbasbsbag1
(g2
g3
Ntp1613
Rp1614
(dp1615
g7
g1
(g8
g3
Ntp1616
Rp1617
(dp1618
g12
(lp1619
g1
(g14
g3
Ntp1620
Rp1621
(dp1622
g18
I0
sg19
I0
sbag1
(g14
g3
Ntp1623
Rp1624
(dp1625
g18
I1
sg19
I0
sbag1
(g14
g3
Ntp1626
Rp1627
(dp1628
g18
I3
sg19
I0
sbag1
(g14
g3
Ntp1629
Rp1630
(dp1631
g18
I5
sg19
I0
sbag1
(g14
g3
Ntp1632
Rp1633
(dp1634
g18
I7
sg19
I0
sbag1
(g14
g3
Ntp1635
Rp1636
(dp1637
g18
I8
sg19
I0
sbag1
(g14
g3
Ntp1638
Rp1639
(dp1640
g18
I10
sg19
I0
sbag1
(g14
g3
Ntp1641
Rp1642
(dp1643
g18
I0
sg19
I1
sbasbsg35
g1
(g8
g3
Ntp1644
Rp1645
(dp1646
g12
(lp1647
g1
(g14
g3
Ntp1648
Rp1649
(dp1650
g18
I0
sg19
I1
sbag1
(g14
g3
Ntp1651
Rp1652
(dp1653
g18
I10
sg19
I0
sbag1
(g14
g3
Ntp1654
Rp1655
(dp1656
g18
I8
sg19
I0
sbag1
(g14
g3
Ntp1657
Rp1658
(dp1659
g18
I7
sg19
I0
sbag1
(g14
g3
Ntp1660
Rp1661
(dp1662
g18
I5
sg19
I0
sbag1
(g14
g3
Ntp1663
Rp1664
(dp1665
g18
I3
sg19
I0
sbag1
(g14
g3
Ntp1666
Rp1667
(dp1668
g18
I1
sg19
I0
sbag1
(g14
g3
Ntp1669
Rp1670
(dp1671
g18
I0
sg19
I0
sbasbsbag1
(g2
g3
Ntp1672
Rp1673
(dp1674
g7
g1
(g8
g3
Ntp1675
Rp1676
(dp1677
g12
(lp1678
g1
(g14
g3
Ntp1679
Rp1680
(dp1681
g18
I0
sg19
I0
sbag1
(g14
g3
Ntp1682
Rp1683
(dp1684
g18
I4
sg19
I0
sbag1
(g14
g3
Ntp1685
Rp1686
(dp1687
g18
I5
sg19
I0
sbag1
(g14
g3
Ntp1688
Rp1689
(dp1690
g18
I7
sg19
I0
sbag1
(g14
g3
Ntp1691
Rp1692
(dp1693
g18
I11
sg19
I0
sbag1
(g14
g3
Ntp1694
Rp1695
(dp1696
g18
I0
sg19
I1
sbasbsg35
g1
(g8
g3
Ntp1697
Rp1698
(dp1699
g12
(lp1700
g1
(g14
g3
Ntp1701
Rp1702
(dp1703
g18
I0
sg19
I1
sbag1
(g14
g3
Ntp1704
Rp1705
(dp1706
g18
I10
sg19
I0
sbag1
(g14
g3
Ntp1707
Rp1708
(dp1709
g18
I7
sg19
I0
sbag1
(g14
g3
Ntp1710
Rp1711
(dp1712
g18
I5
sg19
I0
sbag1
(g14
g3
Ntp1713
Rp1714
(dp1715
g18
I4
sg19
I0
sbag1
(g14
g3
Ntp1716
Rp1717
(dp1718
g18
I0
sg19
I0
sbasbsbag1
(g2
g3
Ntp1719
Rp1720
(dp1721
g7
g1
(g8
g3
Ntp1722
Rp1723
(dp1724
g12
(lp1725
g1
(g14
g3
Ntp1726
Rp1727
(dp1728
g18
I0
sg19
I0
sbag1
(g14
g3
Ntp1729
Rp1730
(dp1731
g18
I4
sg19
I0
sbag1
(g14
g3
Ntp1732
Rp1733
(dp1734
g18
I5
sg19
I0
sbag1
(g14
g3
Ntp1735
Rp1736
(dp1737
g18
I7
sg19
I0
sbag1
(g14
g3
Ntp1738
Rp1739
(dp1740
g18
I9
sg19
I0
sbag1
(g14
g3
Ntp1741
Rp1742
(dp1743
g18
I11
sg19
I0
sbag1
(g14
g3
Ntp1744
Rp1745
(dp1746
g18
I0
sg19
I1
sbasbsg35
g1
(g8
g3
Ntp1747
Rp1748
(dp1749
g12
(lp1750
g1
(g14
g3
Ntp1751
Rp1752
(dp1753
g18
I0
sg19
I1
sbag1
(g14
g3
Ntp1754
Rp1755
(dp1756
g18
I10
sg19
I0
sbag1
(g14
g3
Ntp1757
Rp1758
(dp1759
g18
I9
sg19
I0
sbag1
(g14
g3
Ntp1760
Rp1761
(dp1762
g18
I7
sg19
I0
sbag1
(g14
g3
Ntp1763
Rp1764
(dp1765
g18
I5
sg19
I0
sbag1
(g14
g3
Ntp1766
Rp1767
(dp1768
g18
I4
sg19
I0
sbag1
(g14
g3
Ntp1769
Rp1770
(dp1771
g18
I2
sg19
I0
sbag1
(g14
g3
Ntp1772
Rp1773
(dp1774
g18
I0
sg19
I0
sbasbsbag1
(g2
g3
Ntp1775
Rp1776
(dp1777
g7
g1
(g8
g3
Ntp1778
Rp1779
(dp1780
g12
(lp1781
g1
(g14
g3
Ntp1782
Rp1783
(dp1784
g18
I10
sg19
I-1
sbag1
(g14
g3
Ntp1785
Rp1786
(dp1787
g18
I0
sg19
I0
sbag1
(g14
g3
Ntp1788
Rp1789
(dp1790
g18
I3
sg19
I0
sbag1
(g14
g3
Ntp1791
Rp1792
(dp1793
g18
I5
sg19
I0
sbag1
(g14
g3
Ntp1794
Rp1795
(dp1796
g18
I7
sg19
I0
sbag1
(g14
g3
Ntp1797
Rp1798
(dp1799
g18
I10
sg19
I0
sbag1
(g14
g3
Ntp1800
Rp1801
(dp1802
g18
I0
sg19
I1
sbasbsg35
g1
(g8
g3
Ntp1803
Rp1804
(dp1805
g12
(lp1806
g1
(g14
g3
Ntp1807
Rp1808
(dp1809
g18
I0
sg19
I1
sbag1
(g14
g3
Ntp1810
Rp1811
(dp1812
g18
I10
sg19
I0
sbag1
(g14
g3
Ntp1813
Rp1814
(dp1815
g18
I7
sg19
I0
sbag1
(g14
g3
Ntp1816
Rp1817
(dp1818
g18
I6
sg19
I0
sbag1
(g14
g3
Ntp1819
Rp1820
(dp1821
g18
I3
sg19
I0
sbag1
(g14
g3
Ntp1822
Rp1823
(dp1824
g18
I2
sg19
I0
sbag1
(g14
g3
Ntp1825
Rp1826
(dp1827
g18
I0
sg19
I0
sbasbsbag1
(g2
g3
Ntp1828
Rp1829
(dp1830
g7
g1
(g8
g3
Ntp1831
Rp1832
(dp1833
g12
(lp1834
g1
(g14
g3
Ntp1835
Rp1836
(dp1837
g18
I0
sg19
I0
sbag1
(g14
g3
Ntp1838
Rp1839
(dp1840
g18
I2
sg19
I0
sbag1
(g14
g3
Ntp1841
Rp1842
(dp1843
g18
I4
sg19
I0
sbag1
(g14
g3
Ntp1844
Rp1845
(dp1846
g18
I7
sg19
I0
sbag1
(g14
g3
Ntp1847
Rp1848
(dp1849
g18
I9
sg19
I0
sbag1
(g14
g3
Ntp1850
Rp1851
(dp1852
g18
I11
sg19
I0
sbag1
(g14
g3
Ntp1853
Rp1854
(dp1855
g18
I0
sg19
I1
sbasbsg35
g1
(g8
g3
Ntp1856
Rp1857
(dp1858
g12
(lp1859
g1
(g14
g3
Ntp1860
Rp1861
(dp1862
g18
I0
sg19
I1
sbag1
(g14
g3
Ntp1863
Rp1864
(dp1865
g18
I11
sg19
I0
sbag1
(g14
g3
Ntp1866
Rp1867
(dp1868
g18
I9
sg19
I0
sbag1
(g14
g3
Ntp1869
Rp1870
(dp1871
g18
I7
sg19
I0
sbag1
(g14
g3
Ntp1872
Rp1873
(dp1874
g18
I6
sg19
I0
sbag1
(g14
g3
Ntp1875
Rp1876
(dp1877
g18
I4
sg19
I0
sbag1
(g14
g3
Ntp1878
Rp1879
(dp1880
g18
I2
sg19
I0
sbag1
(g14
g3
Ntp1881
Rp1882
(dp1883
g18
I0
sg19
I0
sbasbsbag1
(g2
g3
Ntp1884
Rp1885
(dp1886
g7
g1
(g8
g3
Ntp1887
Rp1888
(dp1889
g12
(lp1890
g1
(g14
g3
Ntp1891
Rp1892
(dp1893
g18
I0
sg19
I0
sbag1
(g14
g3
Ntp1894
Rp1895
(dp1896
g18
I4
sg19
I0
sbag1
(g14
g3
Ntp1897
Rp1898
(dp1899
g18
I7
sg19
I0
sbag1
(g14
g3
Ntp1900
Rp1901
(dp1902
g18
I9
sg19
I0
sbag1
(g14
g3
Ntp1903
Rp1904
(dp1905
g18
I11
sg19
I0
sbag1
(g14
g3
Ntp1906
Rp1907
(dp1908
g18
I0
sg19
I1
sbasbsg35
g1
(g8
g3
Ntp1909
Rp1910
(dp1911
g12
(lp1912
g1
(g14
g3
Ntp1913
Rp1914
(dp1915
g18
I0
sg19
I1
sbag1
(g14
g3
Ntp1916
Rp1917
(dp1918
g18
I10
sg19
I0
sbag1
(g14
g3
Ntp1919
Rp1920
(dp1921
g18
I9
sg19
I0
sbag1
(g14
g3
Ntp1922
Rp1923
(dp1924
g18
I7
sg19
I0
sbag1
(g14
g3
Ntp1925
Rp1926
(dp1927
g18
I4
sg19
I0
sbag1
(g14
g3
Ntp1928
Rp1929
(dp1930
g18
I3
sg19
I0
sbag1
(g14
g3
Ntp1931
Rp1932
(dp1933
g18
I0
sg19
I0
sbasbsbag1
(g2
g3
Ntp1934
Rp1935
(dp1936
g7
g1
(g8
g3
Ntp1937
Rp1938
(dp1939
g12
(lp1940
g1
(g14
g3
Ntp1941
Rp1942
(dp1943
g18
I0
sg19
I0
sbag1
(g14
g3
Ntp1944
Rp1945
(dp1946
g18
I3
sg19
I0
sbag1
(g14
g3
Ntp1947
Rp1948
(dp1949
g18
I5
sg19
I0
sbag1
(g14
g3
Ntp1950
Rp1951
(dp1952
g18
I9
sg19
I0
sbag1
(g14
g3
Ntp1953
Rp1954
(dp1955
g18
I11
sg19
I0
sbag1
(g14
g3
Ntp1956
Rp1957
(dp1958
g18
I0
sg19
I1
sbasbsg35
g1
(g8
g3
Ntp1959
Rp1960
(dp1961
g12
(lp1962
g1
(g14
g3
Ntp1963
Rp1964
(dp1965
g18
I0
sg19
I1
sbag1
(g14
g3
Ntp1966
Rp1967
(dp1968
g18
I11
sg19
I0
sbag1
(g14
g3
Ntp1969
Rp1970
(dp1971
g18
I9
sg19
I0
sbag1
(g14
g3
Ntp1972
Rp1973
(dp1974
g18
I5
sg19
I0
sbag1
(g14
g3
Ntp1975
Rp1976
(dp1977
g18
I3
sg19
I0
sbag1
(g14
g3
Ntp1978
Rp1979
(dp1980
g18
I0
sg19
I0
sbasbsbag1
(g2
g3
Ntp1981
Rp1982
(dp1983
g7
g1
(g8
g3
Ntp1984
Rp1985
(dp1986
g12
(lp1987
g1
(g14
g3
Ntp1988
Rp1989
(dp1990
g18
I0
sg19
I0
sbag1
(g14
g3
Ntp1991
Rp1992
(dp1993
g18
I3
sg19
I0
sbag1
(g14
g3
Ntp1994
Rp1995
(dp1996
g18
I5
sg19
I0
sbag1
(g14
g3
Ntp1997
Rp1998
(dp1999
g18
I7
sg19
I0
sbag1
(g14
g3
Ntp2000
Rp2001
(dp2002
g18
I8
sg19
I0
sbag1
(g14
g3
Ntp2003
Rp2004
(dp2005
g18
I10
sg19
I0
sbag1
(g14
g3
Ntp2006
Rp2007
(dp2008
g18
I0
sg19
I1
sbasbsg35
g1
(g8
g3
Ntp2009
Rp2010
(dp2011
g12
(lp2012
g1
(g14
g3
Ntp2013
Rp2014
(dp2015
g18
I0
sg19
I1
sbag1
(g14
g3
Ntp2016
Rp2017
(dp2018
g18
I10
sg19
I0
sbag1
(g14
g3
Ntp2019
Rp2020
(dp2021
g18
I8
sg19
I0
sbag1
(g14
g3
Ntp2022
Rp2023
(dp2024
g18
I7
sg19
I0
sbag1
(g14
g3
Ntp2025
Rp2026
(dp2027
g18
I5
sg19
I0
sbag1
(g14
g3
Ntp2028
Rp2029
(dp2030
g18
I3
sg19
I0
sbag1
(g14
g3
Ntp2031
Rp2032
(dp2033
g18
I0
sg19
I0
sbasbsbag1
(g2
g3
Ntp2034
Rp2035
(dp2036
g7
g1
(g8
g3
Ntp2037
Rp2038
(dp2039
g12
(lp2040
g1
(g14
g3
Ntp2041
Rp2042
(dp2043
g18
I0
sg19
I0
sbag1
(g14
g3
Ntp2044
Rp2045
(dp2046
g18
I1
sg19
I0
sbag1
(g14
g3
Ntp2047
Rp2048
(dp2049
g18
I4
sg19
I0
sbag1
(g14
g3
Ntp2050
Rp2051
(dp2052
g18
I5
sg19
I0
sbag1
(g14
g3
Ntp2053
Rp2054
(dp2055
g18
I7
sg19
I0
sbag1
(g14
g3
Ntp2056
Rp2057
(dp2058
g18
I8
sg19
I0
sbag1
(g14
g3
Ntp2059
Rp2060
(dp2061
g18
I10
sg19
I0
sbag1
(g14
g3
Ntp2062
Rp2063
(dp2064
g18
I0
sg19
I1
sbasbsg35
g1
(g8
g3
Ntp2065
Rp2066
(dp2067
g12
(lp2068
g1
(g14
g3
Ntp2069
Rp2070
(dp2071
g18
I0
sg19
I1
sbag1
(g14
g3
Ntp2072
Rp2073
(dp2074
g18
I10
sg19
I0
sbag1
(g14
g3
Ntp2075
Rp2076
(dp2077
g18
I8
sg19
I0
sbag1
(g14
g3
Ntp2078
Rp2079
(dp2080
g18
I7
sg19
I0
sbag1
(g14
g3
Ntp2081
Rp2082
(dp2083
g18
I5
sg19
I0
sbag1
(g14
g3
Ntp2084
Rp2085
(dp2086
g18
I4
sg19
I0
sbag1
(g14
g3
Ntp2087
Rp2088
(dp2089
g18
I1
sg19
I0
sbag1
(g14
g3
Ntp2090
Rp2091
(dp2092
g18
I0
sg19
I0
sbasbsbag1
(g2
g3
Ntp2093
Rp2094
(dp2095
g7
g1
(g8
g3
Ntp2096
Rp2097
(dp2098
g12
(lp2099
g1
(g14
g3
Ntp2100
Rp2101
(dp2102
g18
I0
sg19
I0
sbag1
(g14
g3
Ntp2103
Rp2104
(dp2105
g18
I2
sg19
I0
sbag1
(g14
g3
Ntp2106
Rp2107
(dp2108
g18
I5
sg19
I0
sbag1
(g14
g3
Ntp2109
Rp2110
(dp2111
g18
I7
sg19
I0
sbag1
(g14
g3
Ntp2112
Rp2113
(dp2114
g18
I9
sg19
I0
sbag1
(g14
g3
Ntp2115
Rp2116
(dp2117
g18
I0
sg19
I1
sbasbsg35
g1
(g8
g3
Ntp2118
Rp2119
(dp2120
g12
(lp2121
g1
(g14
g3
Ntp2122
Rp2123
(dp2124
g18
I0
sg19
I1
sbag1
(g14
g3
Ntp2125
Rp2126
(dp2127
g18
I11
sg19
I0
sbag1
(g14
g3
Ntp2128
Rp2129
(dp2130
g18
I9
sg19
I0
sbag1
(g14
g3
Ntp2131
Rp2132
(dp2133
g18
I7
sg19
I0
sbag1
(g14
g3
Ntp2134
Rp2135
(dp2136
g18
I5
sg19
I0
sbag1
(g14
g3
Ntp2137
Rp2138
(dp2139
g18
I4
sg19
I0
sbag1
(g14
g3
Ntp2140
Rp2141
(dp2142
g18
I2
sg19
I0
sbag1
(g14
g3
Ntp2143
Rp2144
(dp2145
g18
I0
sg19
I0
sbasbsbag1
(g2
g3
Ntp2146
Rp2147
(dp2148
g7
g1
(g8
g3
Ntp2149
Rp2150
(dp2151
g12
(lp2152
g1
(g14
g3
Ntp2153
Rp2154
(dp2155
g18
I11
sg19
I-1
sbag1
(g14
g3
Ntp2156
Rp2157
(dp2158
g18
I2
sg19
I0
sbag1
(g14
g3
Ntp2159
Rp2160
(dp2161
g18
I4
sg19
I0
sbag1
(g14
g3
Ntp2162
Rp2163
(dp2164
g18
I6
sg19
I0
sbag1
(g14
g3
Ntp2165
Rp2166
(dp2167
g18
I9
sg19
I0
sbag1
(g14
g3
Ntp2168
Rp2169
(dp2170
g18
I11
sg19
I0
sbag1
(g14
g3
Ntp2171
Rp2172
(dp2173
g18
I0
sg19
I1
sbasbsg35
g1
(g8
g3
Ntp2174
Rp2175
(dp2176
g12
(lp2177
g1
(g14
g3
Ntp2178
Rp2179
(dp2180
g18
I0
sg19
I1
sbag1
(g14
g3
Ntp2181
Rp2182
(dp2183
g18
I11
sg19
I0
sbag1
(g14
g3
Ntp2184
Rp2185
(dp2186
g18
I9
sg19
I0
sbag1
(g14
g3
Ntp2187
Rp2188
(dp2189
g18
I7
sg19
I0
sbag1
(g14
g3
Ntp2190
Rp2191
(dp2192
g18
I6
sg19
I0
sbag1
(g14
g3
Ntp2193
Rp2194
(dp2195
g18
I4
sg19
I0
sbag1
(g14
g3
Ntp2196
Rp2197
(dp2198
g18
I2
sg19
I0
sbag1
(g14
g3
Ntp2199
Rp2200
(dp2201
g18
I0
sg19
I0
sbasbsbag1
(g2
g3
Ntp2202
Rp2203
(dp2204
g7
g1
(g8
g3
Ntp2205
Rp2206
(dp2207
g12
(lp2208
g1
(g14
g3
Ntp2209
Rp2210
(dp2211
g18
I0
sg19
I0
sbag1
(g14
g3
Ntp2212
Rp2213
(dp2214
g18
I1
sg19
I0
sbag1
(g14
g3
Ntp2215
Rp2216
(dp2217
g18
I5
sg19
I0
sbag1
(g14
g3
Ntp2218
Rp2219
(dp2220
g18
I7
sg19
I0
sbag1
(g14
g3
Ntp2221
Rp2222
(dp2223
g18
I8
sg19
I0
sbag1
(g14
g3
Ntp2224
Rp2225
(dp2226
g18
I0
sg19
I1
sbasbsg35
g1
(g8
g3
Ntp2227
Rp2228
(dp2229
g12
(lp2230
g1
(g14
g3
Ntp2231
Rp2232
(dp2233
g18
I0
sg19
I1
sbag1
(g14
g3
Ntp2234
Rp2235
(dp2236
g18
I11
sg19
I0
sbag1
(g14
g3
Ntp2237
Rp2238
(dp2239
g18
I8
sg19
I0
sbag1
(g14
g3
Ntp2240
Rp2241
(dp2242
g18
I7
sg19
I0
sbag1
(g14
g3
Ntp2243
Rp2244
(dp2245
g18
I5
sg19
I0
sbag1
(g14
g3
Ntp2246
Rp2247
(dp2248
g18
I4
sg19
I0
sbag1
(g14
g3
Ntp2249
Rp2250
(dp2251
g18
I1
sg19
I0
sbag1
(g14
g3
Ntp2252
Rp2253
(dp2254
g18
I0
sg19
I0
sbasbsbag1
(g2
g3
Ntp2255
Rp2256
(dp2257
g7
g1
(g8
g3
Ntp2258
Rp2259
(dp2260
g12
(lp2261
g1
(g14
g3
Ntp2262
Rp2263
(dp2264
g18
I0
sg19
I0
sbag1
(g14
g3
Ntp2265
Rp2266
(dp2267
g18
I1
sg19
I0
sbag1
(g14
g3
Ntp2268
Rp2269
(dp2270
g18
I6
sg19
I0
sbag1
(g14
g3
Ntp2271
Rp2272
(dp2273
g18
I7
sg19
I0
sbag1
(g14
g3
Ntp2274
Rp2275
(dp2276
g18
I8
sg19
I0
sbag1
(g14
g3
Ntp2277
Rp2278
(dp2279
g18
I0
sg19
I1
sbasbsg35
g1
(g8
g3
Ntp2280
Rp2281
(dp2282
g12
(lp2283
g1
(g14
g3
Ntp2284
Rp2285
(dp2286
g18
I0
sg19
I1
sbag1
(g14
g3
Ntp2287
Rp2288
(dp2289
g18
I9
sg19
I0
sbag1
(g14
g3
Ntp2290
Rp2291
(dp2292
g18
I7
sg19
I0
sbag1
(g14
g3
Ntp2293
Rp2294
(dp2295
g18
I6
sg19
I0
sbag1
(g14
g3
Ntp2296
Rp2297
(dp2298
g18
I1
sg19
I0
sbag1
(g14
g3
Ntp2299
Rp2300
(dp2301
g18
I0
sg19
I0
sbasbsbag1
(g2
g3
Ntp2302
Rp2303
(dp2304
g7
g1
(g8
g3
Ntp2305
Rp2306
(dp2307
g12
(lp2308
g1
(g14
g3
Ntp2309
Rp2310
(dp2311
g18
I0
sg19
I0
sbag1
(g14
g3
Ntp2312
Rp2313
(dp2314
g18
I3
sg19
I0
sbag1
(g14
g3
Ntp2315
Rp2316
(dp2317
g18
I6
sg19
I0
sbag1
(g14
g3
Ntp2318
Rp2319
(dp2320
g18
I7
sg19
I0
sbag1
(g14
g3
Ntp2321
Rp2322
(dp2323
g18
I10
sg19
I0
sbag1
(g14
g3
Ntp2324
Rp2325
(dp2326
g18
I0
sg19
I1
sbasbsg35
g1
(g8
g3
Ntp2327
Rp2328
(dp2329
g12
(lp2330
g1
(g14
g3
Ntp2331
Rp2332
(dp2333
g18
I0
sg19
I1
sbag1
(g14
g3
Ntp2334
Rp2335
(dp2336
g18
I10
sg19
I0
sbag1
(g14
g3
Ntp2337
Rp2338
(dp2339
g18
I7
sg19
I0
sbag1
(g14
g3
Ntp2340
Rp2341
(dp2342
g18
I6
sg19
I0
sbag1
(g14
g3
Ntp2343
Rp2344
(dp2345
g18
I3
sg19
I0
sbag1
(g14
g3
Ntp2346
Rp2347
(dp2348
g18
I0
sg19
I0
sbasbsbag1
(g2
g3
Ntp2349
Rp2350
(dp2351
g7
g1
(g8
g3
Ntp2352
Rp2353
(dp2354
g12
(lp2355
g1
(g14
g3
Ntp2356
Rp2357
(dp2358
g18
I11
sg19
I-1
sbag1
(g14
g3
Ntp2359
Rp2360
(dp2361
g18
I0
sg19
I0
sbag1
(g14
g3
Ntp2362
Rp2363
(dp2364
g18
I3
sg19
I0
sbag1
(g14
g3
Ntp2365
Rp2366
(dp2367
g18
I6
sg19
I0
sbag1
(g14
g3
Ntp2368
Rp2369
(dp2370
g18
I7
sg19
I0
sbag1
(g14
g3
Ntp2371
Rp2372
(dp2373
g18
I11
sg19
I0
sbag1
(g14
g3
Ntp2374
Rp2375
(dp2376
g18
I0
sg19
I1
sbasbsg35
g1
(g8
g3
Ntp2377
Rp2378
(dp2379
g12
(lp2380
g1
(g14
g3
Ntp2381
Rp2382
(dp2383
g18
I0
sg19
I1
sbag1
(g14
g3
Ntp2384
Rp2385
(dp2386
g18
I11
sg19
I0
sbag1
(g14
g3
Ntp2387
Rp2388
(dp2389
g18
I7
sg19
I0
sbag1
(g14
g3
Ntp2390
Rp2391
(dp2392
g18
I6
sg19
I0
sbag1
(g14
g3
Ntp2393
Rp2394
(dp2395
g18
I3
sg19
I0
sbag1
(g14
g3
Ntp2396
Rp2397
(dp2398
g18
I1
sg19
I0
sbag1
(g14
g3
Ntp2399
Rp2400
(dp2401
g18
I0
sg19
I0
sbasbsbag1
(g2
g3
Ntp2402
Rp2403
(dp2404
g7
g1
(g8
g3
Ntp2405
Rp2406
(dp2407
g12
(lp2408
g1
(g14
g3
Ntp2409
Rp2410
(dp2411
g18
I0
sg19
I0
sbag1
(g14
g3
Ntp2412
Rp2413
(dp2414
g18
I2
sg19
I0
sbag1
(g14
g3
Ntp2415
Rp2416
(dp2417
g18
I4
sg19
I0
sbag1
(g14
g3
Ntp2418
Rp2419
(dp2420
g18
I5
sg19
I0
sbag1
(g14
g3
Ntp2421
Rp2422
(dp2423
g18
I7
sg19
I0
sbag1
(g14
g3
Ntp2424
Rp2425
(dp2426
g18
I8
sg19
I0
sbag1
(g14
g3
Ntp2427
Rp2428
(dp2429
g18
I11
sg19
I0
sbag1
(g14
g3
Ntp2430
Rp2431
(dp2432
g18
I0
sg19
I1
sbasbsg35
g1
(g8
g3
Ntp2433
Rp2434
(dp2435
g12
(lp2436
g1
(g14
g3
Ntp2437
Rp2438
(dp2439
g18
I0
sg19
I1
sbag1
(g14
g3
Ntp2440
Rp2441
(dp2442
g18
I11
sg19
I0
sbag1
(g14
g3
Ntp2443
Rp2444
(dp2445
g18
I8
sg19
I0
sbag1
(g14
g3
Ntp2446
Rp2447
(dp2448
g18
I7
sg19
I0
sbag1
(g14
g3
Ntp2449
Rp2450
(dp2451
g18
I5
sg19
I0
sbag1
(g14
g3
Ntp2452
Rp2453
(dp2454
g18
I4
sg19
I0
sbag1
(g14
g3
Ntp2455
Rp2456
(dp2457
g18
I2
sg19
I0
sbag1
(g14
g3
Ntp2458
Rp2459
(dp2460
g18
I0
sg19
I0
sbasbsbag1
(g2
g3
Ntp2461
Rp2462
(dp2463
g7
g1
(g8
g3
Ntp2464
Rp2465
(dp2466
g12
(lp2467
g1
(g14
g3
Ntp2468
Rp2469
(dp2470
g18
I0
sg19
I0
sbag1
(g14
g3
Ntp2471
Rp2472
(dp2473
g18
I3
sg19
I0
sbag1
(g14
g3
Ntp2474
Rp2475
(dp2476
g18
I5
sg19
I0
sbag1
(g14
g3
Ntp2477
Rp2478
(dp2479
g18
I8
sg19
I0
sbag1
(g14
g3
Ntp2480
Rp2481
(dp2482
g18
I10
sg19
I0
sbag1
(g14
g3
Ntp2483
Rp2484
(dp2485
g18
I0
sg19
I1
sbasbsg35
g1
(g8
g3
Ntp2486
Rp2487
(dp2488
g12
(lp2489
g1
(g14
g3
Ntp2490
Rp2491
(dp2492
g18
I0
sg19
I1
sbag1
(g14
g3
Ntp2493
Rp2494
(dp2495
g18
I10
sg19
I0
sbag1
(g14
g3
Ntp2496
Rp2497
(dp2498
g18
I8
sg19
I0
sbag1
(g14
g3
Ntp2499
Rp2500
(dp2501
g18
I5
sg19
I0
sbag1
(g14
g3
Ntp2502
Rp2503
(dp2504
g18
I3
sg19
I0
sbag1
(g14
g3
Ntp2505
Rp2506
(dp2507
g18
I0
sg19
I0
sbasbsbag1
(g2
g3
Ntp2508
Rp2509
(dp2510
g7
g1
(g8
g3
Ntp2511
Rp2512
(dp2513
g12
(lp2514
g1
(g14
g3
Ntp2515
Rp2516
(dp2517
g18
I0
sg19
I0
sbag1
(g14
g3
Ntp2518
Rp2519
(dp2520
g18
I2
sg19
I0
sbag1
(g14
g3
Ntp2521
Rp2522
(dp2523
g18
I4
sg19
I0
sbag1
(g14
g3
Ntp2524
Rp2525
(dp2526
g18
I5
sg19
I0
sbag1
(g14
g3
Ntp2527
Rp2528
(dp2529
g18
I7
sg19
I0
sbag1
(g14
g3
Ntp2530
Rp2531
(dp2532
g18
I9
sg19
I0
sbag1
(g14
g3
Ntp2533
Rp2534
(dp2535
g18
I11
sg19
I0
sbag1
(g14
g3
Ntp2536
Rp2537
(dp2538
g18
I0
sg19
I1
sbasbsg35
g1
(g8
g3
Ntp2539
Rp2540
(dp2541
g12
(lp2542
g1
(g14
g3
Ntp2543
Rp2544
(dp2545
g18
I0
sg19
I1
sbag1
(g14
g3
Ntp2546
Rp2547
(dp2548
g18
I10
sg19
I0
sbag1
(g14
g3
Ntp2549
Rp2550
(dp2551
g18
I9
sg19
I0
sbag1
(g14
g3
Ntp2552
Rp2553
(dp2554
g18
I7
sg19
I0
sbag1
(g14
g3
Ntp2555
Rp2556
(dp2557
g18
I5
sg19
I0
sbag1
(g14
g3
Ntp2558
Rp2559
(dp2560
g18
I3
sg19
I0
sbag1
(g14
g3
Ntp2561
Rp2562
(dp2563
g18
I2
sg19
I0
sbag1
(g14
g3
Ntp2564
Rp2565
(dp2566
g18
I0
sg19
I0
sbasbsbag1
(g2
g3
Ntp2567
Rp2568
(dp2569
g7
g1
(g8
g3
Ntp2570
Rp2571
(dp2572
g12
(lp2573
g1
(g14
g3
Ntp2574
Rp2575
(dp2576
g18
I0
sg19
I0
sbag1
(g14
g3
Ntp2577
Rp2578
(dp2579
g18
I1
sg19
I0
sbag1
(g14
g3
Ntp2580
Rp2581
(dp2582
g18
I4
sg19
I0
sbag1
(g14
g3
Ntp2583
Rp2584
(dp2585
g18
I5
sg19
I0
sbag1
(g14
g3
Ntp2586
Rp2587
(dp2588
g18
I7
sg19
I0
sbag1
(g14
g3
Ntp2589
Rp2590
(dp2591
g18
I9
sg19
I0
sbag1
(g14
g3
Ntp2592
Rp2593
(dp2594
g18
I10
sg19
I0
sbag1
(g14
g3
Ntp2595
Rp2596
(dp2597
g18
I0
sg19
I1
sbasbsg35
g1
(g8
g3
Ntp2598
Rp2599
(dp2600
g12
(lp2601
g1
(g14
g3
Ntp2602
Rp2603
(dp2604
g18
I0
sg19
I1
sbag1
(g14
g3
Ntp2605
Rp2606
(dp2607
g18
I10
sg19
I0
sbag1
(g14
g3
Ntp2608
Rp2609
(dp2610
g18
I9
sg19
I0
sbag1
(g14
g3
Ntp2611
Rp2612
(dp2613
g18
I7
sg19
I0
sbag1
(g14
g3
Ntp2614
Rp2615
(dp2616
g18
I5
sg19
I0
sbag1
(g14
g3
Ntp2617
Rp2618
(dp2619
g18
I4
sg19
I0
sbag1
(g14
g3
Ntp2620
Rp2621
(dp2622
g18
I1
sg19
I0
sbag1
(g14
g3
Ntp2623
Rp2624
(dp2625
g18
I0
sg19
I0
sbasbsbag1
(g2
g3
Ntp2626
Rp2627
(dp2628
g7
g1
(g8
g3
Ntp2629
Rp2630
(dp2631
g12
(lp2632
g1
(g14
g3
Ntp2633
Rp2634
(dp2635
g18
I0
sg19
I0
sbag1
(g14
g3
Ntp2636
Rp2637
(dp2638
g18
I2
sg19
I0
sbag1
(g14
g3
Ntp2639
Rp2640
(dp2641
g18
I4
sg19
I0
sbag1
(g14
g3
Ntp2642
Rp2643
(dp2644
g18
I6
sg19
I0
sbag1
(g14
g3
Ntp2645
Rp2646
(dp2647
g18
I11
sg19
I0
sbag1
(g14
g3
Ntp2648
Rp2649
(dp2650
g18
I0
sg19
I1
sbasbsg35
g1
(g8
g3
Ntp2651
Rp2652
(dp2653
g12
(lp2654
g1
(g14
g3
Ntp2655
Rp2656
(dp2657
g18
I0
sg19
I1
sbag1
(g14
g3
Ntp2658
Rp2659
(dp2660
g18
I11
sg19
I0
sbag1
(g14
g3
Ntp2661
Rp2662
(dp2663
g18
I6
sg19
I0
sbag1
(g14
g3
Ntp2664
Rp2665
(dp2666
g18
I4
sg19
I0
sbag1
(g14
g3
Ntp2667
Rp2668
(dp2669
g18
I2
sg19
I0
sbag1
(g14
g3
Ntp2670
Rp2671
(dp2672
g18
I0
sg19
I0
sbasbsbag1
(g2
g3
Ntp2673
Rp2674
(dp2675
g7
g1
(g8
g3
Ntp2676
Rp2677
(dp2678
g12
(lp2679
g1
(g14
g3
Ntp2680
Rp2681
(dp2682
g18
I0
sg19
I0
sbag1
(g14
g3
Ntp2683
Rp2684
(dp2685
g18
I2
sg19
I0
sbag1
(g14
g3
Ntp2686
Rp2687
(dp2688
g18
I4
sg19
I0
sbag1
(g14
g3
Ntp2689
Rp2690
(dp2691
g18
I5
sg19
I0
sbag1
(g14
g3
Ntp2692
Rp2693
(dp2694
g18
I7
sg19
I0
sbag1
(g14
g3
Ntp2695
Rp2696
(dp2697
g18
I9
sg19
I0
sbag1
(g14
g3
Ntp2698
Rp2699
(dp2700
g18
I11
sg19
I0
sbag1
(g14
g3
Ntp2701
Rp2702
(dp2703
g18
I0
sg19
I1
sbasbsg35
g1
(g8
g3
Ntp2704
Rp2705
(dp2706
g12
(lp2707
g1
(g14
g3
Ntp2708
Rp2709
(dp2710
g18
I0
sg19
I1
sbag1
(g14
g3
Ntp2711
Rp2712
(dp2713
g18
I11
sg19
I0
sbag1
(g14
g3
Ntp2714
Rp2715
(dp2716
g18
I7
sg19
I0
sbag1
(g14
g3
Ntp2717
Rp2718
(dp2719
g18
I5
sg19
I0
sbag1
(g14
g3
Ntp2720
Rp2721
(dp2722
g18
I2
sg19
I0
sbag1
(g14
g3
Ntp2723
Rp2724
(dp2725
g18
I0
sg19
I0
sbasbsbag1
(g2
g3
Ntp2726
Rp2727
(dp2728
g7
g1
(g8
g3
Ntp2729
Rp2730
(dp2731
g12
(lp2732
g1
(g14
g3
Ntp2733
Rp2734
(dp2735
g18
I0
sg19
I0
sbag1
(g14
g3
Ntp2736
Rp2737
(dp2738
g18
I3
sg19
I0
sbag1
(g14
g3
Ntp2739
Rp2740
(dp2741
g18
I5
sg19
I0
sbag1
(g14
g3
Ntp2742
Rp2743
(dp2744
g18
I7
sg19
I0
sbag1
(g14
g3
Ntp2745
Rp2746
(dp2747
g18
I10
sg19
I0
sbag1
(g14
g3
Ntp2748
Rp2749
(dp2750
g18
I0
sg19
I1
sbasbsg35
g1
(g8
g3
Ntp2751
Rp2752
(dp2753
g12
(lp2754
g1
(g14
g3
Ntp2755
Rp2756
(dp2757
g18
I0
sg19
I1
sbag1
(g14
g3
Ntp2758
Rp2759
(dp2760
g18
I10
sg19
I0
sbag1
(g14
g3
Ntp2761
Rp2762
(dp2763
g18
I8
sg19
I0
sbag1
(g14
g3
Ntp2764
Rp2765
(dp2766
g18
I7
sg19
I0
sbag1
(g14
g3
Ntp2767
Rp2768
(dp2769
g18
I5
sg19
I0
sbag1
(g14
g3
Ntp2770
Rp2771
(dp2772
g18
I3
sg19
I0
sbag1
(g14
g3
Ntp2773
Rp2774
(dp2775
g18
I2
sg19
I0
sbag1
(g14
g3
Ntp2776
Rp2777
(dp2778
g18
I0
sg19
I0
sbasbsbag1
(g2
g3
Ntp2779
Rp2780
(dp2781
g7
g1
(g8
g3
Ntp2782
Rp2783
(dp2784
g12
(lp2785
g1
(g14
g3
Ntp2786
Rp2787
(dp2788
g18
I0
sg19
I0
sbag1
(g14
g3
Ntp2789
Rp2790
(dp2791
g18
I1
sg19
I0
sbag1
(g14
g3
Ntp2792
Rp2793
(dp2794
g18
I3
sg19
I0
sbag1
(g14
g3
Ntp2795
Rp2796
(dp2797
g18
I6
sg19
I0
sbag1
(g14
g3
Ntp2798
Rp2799
(dp2800
g18
I7
sg19
I0
sbag1
(g14
g3
Ntp2801
Rp2802
(dp2803
g18
I0
sg19
I1
sbasbsg35
g1
(g8
g3
Ntp2804
Rp2805
(dp2806
g12
(lp2807
g1
(g14
g3
Ntp2808
Rp2809
(dp2810
g18
I0
sg19
I1
sbag1
(g14
g3
Ntp2811
Rp2812
(dp2813
g18
I8
sg19
I0
sbag1
(g14
g3
Ntp2814
Rp2815
(dp2816
g18
I7
sg19
I0
sbag1
(g14
g3
Ntp2817
Rp2818
(dp2819
g18
I6
sg19
I0
sbag1
(g14
g3
Ntp2820
Rp2821
(dp2822
g18
I3
sg19
I0
sbag1
(g14
g3
Ntp2823
Rp2824
(dp2825
g18
I1
sg19
I0
sbag1
(g14
g3
Ntp2826
Rp2827
(dp2828
g18
I0
sg19
I0
sbasbsbag1
(g2
g3
Ntp2829
Rp2830
(dp2831
g7
g1
(g8
g3
Ntp2832
Rp2833
(dp2834
g12
(lp2835
g1
(g14
g3
Ntp2836
Rp2837
(dp2838
g18
I0
sg19
I0
sbag1
(g14
g3
Ntp2839
Rp2840
(dp2841
g18
I1
sg19
I0
sbag1
(g14
g3
Ntp2842
Rp2843
(dp2844
g18
I3
sg19
I0
sbag1
(g14
g3
Ntp2845
Rp2846
(dp2847
g18
I5
sg19
I0
sbag1
(g14
g3
Ntp2848
Rp2849
(dp2850
g18
I7
sg19
I0
sbag1
(g14
g3
Ntp2851
Rp2852
(dp2853
g18
I9
sg19
I0
sbag1
(g14
g3
Ntp2854
Rp2855
(dp2856
g18
I10
sg19
I0
sbag1
(g14
g3
Ntp2857
Rp2858
(dp2859
g18
I0
sg19
I1
sbasbsg35
g1
(g8
g3
Ntp2860
Rp2861
(dp2862
g12
(lp2863
g1
(g14
g3
Ntp2864
Rp2865
(dp2866
g18
I0
sg19
I1
sbag1
(g14
g3
Ntp2867
Rp2868
(dp2869
g18
I10
sg19
I0
sbag1
(g14
g3
Ntp2870
Rp2871
(dp2872
g18
I9
sg19
I0
sbag1
(g14
g3
Ntp2873
Rp2874
(dp2875
g18
I7
sg19
I0
sbag1
(g14
g3
Ntp2876
Rp2877
(dp2878
g18
I5
sg19
I0
sbag1
(g14
g3
Ntp2879
Rp2880
(dp2881
g18
I3
sg19
I0
sbag1
(g14
g3
Ntp2882
Rp2883
(dp2884
g18
I1
sg19
I0
sbag1
(g14
g3
Ntp2885
Rp2886
(dp2887
g18
I0
sg19
I0
sbasbsbag1
(g2
g3
Ntp2888
Rp2889
(dp2890
g7
g1
(g8
g3
Ntp2891
Rp2892
(dp2893
g12
(lp2894
g1
(g14
g3
Ntp2895
Rp2896
(dp2897
g18
I0
sg19
I0
sbag1
(g14
g3
Ntp2898
Rp2899
(dp2900
g18
I1
sg19
I0
sbag1
(g14
g3
Ntp2901
Rp2902
(dp2903
g18
I5
sg19
I0
sbag1
(g14
g3
Ntp2904
Rp2905
(dp2906
g18
I7
sg19
I0
sbag1
(g14
g3
Ntp2907
Rp2908
(dp2909
g18
I8
sg19
I0
sbag1
(g14
g3
Ntp2910
Rp2911
(dp2912
g18
I0
sg19
I1
sbasbsg35
g1
(g8
g3
Ntp2913
Rp2914
(dp2915
g12
(lp2916
g1
(g14
g3
Ntp2917
Rp2918
(dp2919
g18
I0
sg19
I1
sbag1
(g14
g3
Ntp2920
Rp2921
(dp2922
g18
I11
sg19
I0
sbag1
(g14
g3
Ntp2923
Rp2924
(dp2925
g18
I8
sg19
I0
sbag1
(g14
g3
Ntp2926
Rp2927
(dp2928
g18
I7
sg19
I0
sbag1
(g14
g3
Ntp2929
Rp2930
(dp2931
g18
I5
sg19
I0
sbag1
(g14
g3
Ntp2932
Rp2933
(dp2934
g18
I4
sg19
I0
sbag1
(g14
g3
Ntp2935
Rp2936
(dp2937
g18
I1
sg19
I0
sbag1
(g14
g3
Ntp2938
Rp2939
(dp2940
g18
I0
sg19
I0
sbasbsbag1
(g2
g3
Ntp2941
Rp2942
(dp2943
g7
g1
(g8
g3
Ntp2944
Rp2945
(dp2946
g12
(lp2947
g1
(g14
g3
Ntp2948
Rp2949
(dp2950
g18
I0
sg19
I0
sbag1
(g14
g3
Ntp2951
Rp2952
(dp2953
g18
I2
sg19
I0
sbag1
(g14
g3
Ntp2954
Rp2955
(dp2956
g18
I5
sg19
I0
sbag1
(g14
g3
Ntp2957
Rp2958
(dp2959
g18
I7
sg19
I0
sbag1
(g14
g3
Ntp2960
Rp2961
(dp2962
g18
I8
sg19
I0
sbag1
(g14
g3
Ntp2963
Rp2964
(dp2965
g18
I10
sg19
I0
sbag1
(g14
g3
Ntp2966
Rp2967
(dp2968
g18
I0
sg19
I1
sbasbsg35
g1
(g8
g3
Ntp2969
Rp2970
(dp2971
g12
(lp2972
g1
(g14
g3
Ntp2973
Rp2974
(dp2975
g18
I0
sg19
I1
sbag1
(g14
g3
Ntp2976
Rp2977
(dp2978
g18
I10
sg19
I0
sbag1
(g14
g3
Ntp2979
Rp2980
(dp2981
g18
I8
sg19
I0
sbag1
(g14
g3
Ntp2982
Rp2983
(dp2984
g18
I7
sg19
I0
sbag1
(g14
g3
Ntp2985
Rp2986
(dp2987
g18
I5
sg19
I0
sbag1
(g14
g3
Ntp2988
Rp2989
(dp2990
g18
I3
sg19
I0
sbag1
(g14
g3
Ntp2991
Rp2992
(dp2993
g18
I2
sg19
I0
sbag1
(g14
g3
Ntp2994
Rp2995
(dp2996
g18
I0
sg19
I0
sbasbsbag1
(g2
g3
Ntp2997
Rp2998
(dp2999
g7
g1
(g8
g3
Ntp3000
Rp3001
(dp3002
g12
(lp3003
g1
(g14
g3
Ntp3004
Rp3005
(dp3006
g18
I0
sg19
I0
sbag1
(g14
g3
Ntp3007
Rp3008
(dp3009
g18
I2
sg19
I0
sbag1
(g14
g3
Ntp3010
Rp3011
(dp3012
g18
I4
sg19
I0
sbag1
(g14
g3
Ntp3013
Rp3014
(dp3015
g18
I5
sg19
I0
sbag1
(g14
g3
Ntp3016
Rp3017
(dp3018
g18
I7
sg19
I0
sbag1
(g14
g3
Ntp3019
Rp3020
(dp3021
g18
I9
sg19
I0
sbag1
(g14
g3
Ntp3022
Rp3023
(dp3024
g18
I11
sg19
I0
sbag1
(g14
g3
Ntp3025
Rp3026
(dp3027
g18
I0
sg19
I1
sbasbsg35
g1
(g8
g3
Ntp3028
Rp3029
(dp3030
g12
(lp3031
g1
(g14
g3
Ntp3032
Rp3033
(dp3034
g18
I0
sg19
I1
sbag1
(g14
g3
Ntp3035
Rp3036
(dp3037
g18
I11
sg19
I0
sbag1
(g14
g3
Ntp3038
Rp3039
(dp3040
g18
I7
sg19
I0
sbag1
(g14
g3
Ntp3041
Rp3042
(dp3043
g18
I5
sg19
I0
sbag1
(g14
g3
Ntp3044
Rp3045
(dp3046
g18
I2
sg19
I0
sbag1
(g14
g3
Ntp3047
Rp3048
(dp3049
g18
I0
sg19
I0
sbasbsbag1
(g2
g3
Ntp3050
Rp3051
(dp3052
g7
g1
(g8
g3
Ntp3053
Rp3054
(dp3055
g12
(lp3056
g1
(g14
g3
Ntp3057
Rp3058
(dp3059
g18
I0
sg19
I0
sbag1
(g14
g3
Ntp3060
Rp3061
(dp3062
g18
I2
sg19
I0
sbag1
(g14
g3
Ntp3063
Rp3064
(dp3065
g18
I3
sg19
I0
sbag1
(g14
g3
Ntp3066
Rp3067
(dp3068
g18
I7
sg19
I0
sbag1
(g14
g3
Ntp3069
Rp3070
(dp3071
g18
I9
sg19
I0
sbag1
(g14
g3
Ntp3072
Rp3073
(dp3074
g18
I10
sg19
I0
sbag1
(g14
g3
Ntp3075
Rp3076
(dp3077
g18
I0
sg19
I1
sbasbsg35
g1
(g8
g3
Ntp3078
Rp3079
(dp3080
g12
(lp3081
g1
(g14
g3
Ntp3082
Rp3083
(dp3084
g18
I0
sg19
I1
sbag1
(g14
g3
Ntp3085
Rp3086
(dp3087
g18
I10
sg19
I0
sbag1
(g14
g3
Ntp3088
Rp3089
(dp3090
g18
I9
sg19
I0
sbag1
(g14
g3
Ntp3091
Rp3092
(dp3093
g18
I7
sg19
I0
sbag1
(g14
g3
Ntp3094
Rp3095
(dp3096
g18
I3
sg19
I0
sbag1
(g14
g3
Ntp3097
Rp3098
(dp3099
g18
I2
sg19
I0
sbag1
(g14
g3
Ntp3100
Rp3101
(dp3102
g18
I0
sg19
I0
sbasbsbag1
(g2
g3
Ntp3103
Rp3104
(dp3105
g7
g1
(g8
g3
Ntp3106
Rp3107
(dp3108
g12
(lp3109
g1
(g14
g3
Ntp3110
Rp3111
(dp3112
g18
I0
sg19
I0
sbag1
(g14
g3
Ntp3113
Rp3114
(dp3115
g18
I4
sg19
I0
sbag1
(g14
g3
Ntp3116
Rp3117
(dp3118
g18
I5
sg19
I0
sbag1
(g14
g3
Ntp3119
Rp3120
(dp3121
g18
I9
sg19
I0
sbag1
(g14
g3
Ntp3122
Rp3123
(dp3124
g18
I10
sg19
I0
sbag1
(g14
g3
Ntp3125
Rp3126
(dp3127
g18
I0
sg19
I1
sbasbsg35
g1
(g8
g3
Ntp3128
Rp3129
(dp3130
g12
(lp3131
g1
(g14
g3
Ntp3132
Rp3133
(dp3134
g18
I0
sg19
I1
sbag1
(g14
g3
Ntp3135
Rp3136
(dp3137
g18
I10
sg19
I0
sbag1
(g14
g3
Ntp3138
Rp3139
(dp3140
g18
I9
sg19
I0
sbag1
(g14
g3
Ntp3141
Rp3142
(dp3143
g18
I5
sg19
I0
sbag1
(g14
g3
Ntp3144
Rp3145
(dp3146
g18
I4
sg19
I0
sbag1
(g14
g3
Ntp3147
Rp3148
(dp3149
g18
I0
sg19
I0
sbasbsbag1
(g2
g3
Ntp3150
Rp3151
(dp3152
g7
g1
(g8
g3
Ntp3153
Rp3154
(dp3155
g12
(lp3156
g1
(g14
g3
Ntp3157
Rp3158
(dp3159
g18
I0
sg19
I0
sbag1
(g14
g3
Ntp3160
Rp3161
(dp3162
g18
I2
sg19
I0
sbag1
(g14
g3
Ntp3163
Rp3164
(dp3165
g18
I4
sg19
I0
sbag1
(g14
g3
Ntp3166
Rp3167
(dp3168
g18
I7
sg19
I0
sbag1
(g14
g3
Ntp3169
Rp3170
(dp3171
g18
I9
sg19
I0
sbag1
(g14
g3
Ntp3172
Rp3173
(dp3174
g18
I0
sg19
I1
sbasbsg35
g1
(g8
g3
Ntp3175
Rp3176
(dp3177
g12
(lp3178
g1
(g14
g3
Ntp3179
Rp3180
(dp3181
g18
I0
sg19
I1
sbag1
(g14
g3
Ntp3182
Rp3183
(dp3184
g18
I11
sg19
I0
sbag1
(g14
g3
Ntp3185
Rp3186
(dp3187
g18
I9
sg19
I0
sbag1
(g14
g3
Ntp3188
Rp3189
(dp3190
g18
I7
sg19
I0
sbag1
(g14
g3
Ntp3191
Rp3192
(dp3193
g18
I6
sg19
I0
sbag1
(g14
g3
Ntp3194
Rp3195
(dp3196
g18
I4
sg19
I0
sbag1
(g14
g3
Ntp3197
Rp3198
(dp3199
g18
I2
sg19
I0
sbag1
(g14
g3
Ntp3200
Rp3201
(dp3202
g18
I0
sg19
I0
sbasbsbag1
(g2
g3
Ntp3203
Rp3204
(dp3205
g7
g1
(g8
g3
Ntp3206
Rp3207
(dp3208
g12
(lp3209
g1
(g14
g3
Ntp3210
Rp3211
(dp3212
g18
I0
sg19
I0
sbag1
(g14
g3
Ntp3213
Rp3214
(dp3215
g18
I1
sg19
I0
sbag1
(g14
g3
Ntp3216
Rp3217
(dp3218
g18
I3
sg19
I0
sbag1
(g14
g3
Ntp3219
Rp3220
(dp3221
g18
I5
sg19
I0
sbag1
(g14
g3
Ntp3222
Rp3223
(dp3224
g18
I7
sg19
I0
sbag1
(g14
g3
Ntp3225
Rp3226
(dp3227
g18
I0
sg19
I1
sbasbsg35
g1
(g8
g3
Ntp3228
Rp3229
(dp3230
g12
(lp3231
g1
(g14
g3
Ntp3232
Rp3233
(dp3234
g18
I0
sg19
I1
sbag1
(g14
g3
Ntp3235
Rp3236
(dp3237
g18
I10
sg19
I0
sbag1
(g14
g3
Ntp3238
Rp3239
(dp3240
g18
I8
sg19
I0
sbag1
(g14
g3
Ntp3241
Rp3242
(dp3243
g18
I5
sg19
I0
sbag1
(g14
g3
Ntp3244
Rp3245
(dp3246
g18
I3
sg19
I0
sbag1
(g14
g3
Ntp3247
Rp3248
(dp3249
g18
I1
sg19
I0
sbag1
(g14
g3
Ntp3250
Rp3251
(dp3252
g18
I0
sg19
I0
sbasbsbag1
(g2
g3
Ntp3253
Rp3254
(dp3255
g7
g1
(g8
g3
Ntp3256
Rp3257
(dp3258
g12
(lp3259
g1
(g14
g3
Ntp3260
Rp3261
(dp3262
g18
I0
sg19
I0
sbag1
(g14
g3
Ntp3263
Rp3264
(dp3265
g18
I1
sg19
I0
sbag1
(g14
g3
Ntp3266
Rp3267
(dp3268
g18
I4
sg19
I0
sbag1
(g14
g3
Ntp3269
Rp3270
(dp3271
g18
I5
sg19
I0
sbag1
(g14
g3
Ntp3272
Rp3273
(dp3274
g18
I7
sg19
I0
sbag1
(g14
g3
Ntp3275
Rp3276
(dp3277
g18
I9
sg19
I0
sbag1
(g14
g3
Ntp3278
Rp3279
(dp3280
g18
I0
sg19
I1
sbasbsg35
g1
(g8
g3
Ntp3281
Rp3282
(dp3283
g12
(lp3284
g1
(g14
g3
Ntp3285
Rp3286
(dp3287
g18
I0
sg19
I1
sbag1
(g14
g3
Ntp3288
Rp3289
(dp3290
g18
I10
sg19
I0
sbag1
(g14
g3
Ntp3291
Rp3292
(dp3293
g18
I9
sg19
I0
sbag1
(g14
g3
Ntp3294
Rp3295
(dp3296
g18
I7
sg19
I0
sbag1
(g14
g3
Ntp3297
Rp3298
(dp3299
g18
I5
sg19
I0
sbag1
(g14
g3
Ntp3300
Rp3301
(dp3302
g18
I4
sg19
I0
sbag1
(g14
g3
Ntp3303
Rp3304
(dp3305
g18
I1
sg19
I0
sbag1
(g14
g3
Ntp3306
Rp3307
(dp3308
g18
I0
sg19
I0
sbasbsbag1
(g2
g3
Ntp3309
Rp3310
(dp3311
g7
g1
(g8
g3
Ntp3312
Rp3313
(dp3314
g12
(lp3315
g1
(g14
g3
Ntp3316
Rp3317
(dp3318
g18
I0
sg19
I0
sbag1
(g14
g3
Ntp3319
Rp3320
(dp3321
g18
I1
sg19
I0
sbag1
(g14
g3
Ntp3322
Rp3323
(dp3324
g18
I4
sg19
I0
sbag1
(g14
g3
Ntp3325
Rp3326
(dp3327
g18
I5
sg19
I0
sbag1
(g14
g3
Ntp3328
Rp3329
(dp3330
g18
I7
sg19
I0
sbag1
(g14
g3
Ntp3331
Rp3332
(dp3333
g18
I9
sg19
I0
sbag1
(g14
g3
Ntp3334
Rp3335
(dp3336
g18
I10
sg19
I0
sbag1
(g14
g3
Ntp3337
Rp3338
(dp3339
g18
I0
sg19
I1
sbasbsg35
g1
(g8
g3
Ntp3340
Rp3341
(dp3342
g12
(lp3343
g1
(g14
g3
Ntp3344
Rp3345
(dp3346
g18
I0
sg19
I1
sbag1
(g14
g3
Ntp3347
Rp3348
(dp3349
g18
I10
sg19
I0
sbag1
(g14
g3
Ntp3350
Rp3351
(dp3352
g18
I8
sg19
I0
sbag1
(g14
g3
Ntp3353
Rp3354
(dp3355
g18
I7
sg19
I0
sbag1
(g14
g3
Ntp3356
Rp3357
(dp3358
g18
I5
sg19
I0
sbag1
(g14
g3
Ntp3359
Rp3360
(dp3361
g18
I3
sg19
I0
sbag1
(g14
g3
Ntp3362
Rp3363
(dp3364
g18
I2
sg19
I0
sbag1
(g14
g3
Ntp3365
Rp3366
(dp3367
g18
I0
sg19
I0
sbasbsbag1
(g2
g3
Ntp3368
Rp3369
(dp3370
g7
g1
(g8
g3
Ntp3371
Rp3372
(dp3373
g12
(lp3374
g1
(g14
g3
Ntp3375
Rp3376
(dp3377
g18
I0
sg19
I0
sbag1
(g14
g3
Ntp3378
Rp3379
(dp3380
g18
I2
sg19
I0
sbag1
(g14
g3
Ntp3381
Rp3382
(dp3383
g18
I4
sg19
I0
sbag1
(g14
g3
Ntp3384
Rp3385
(dp3386
g18
I7
sg19
I0
sbag1
(g14
g3
Ntp3387
Rp3388
(dp3389
g18
I9
sg19
I0
sbag1
(g14
g3
Ntp3390
Rp3391
(dp3392
g18
I0
sg19
I1
sbasbsg35
g1
(g8
g3
Ntp3393
Rp3394
(dp3395
g12
(lp3396
g1
(g14
g3
Ntp3397
Rp3398
(dp3399
g18
I0
sg19
I1
sbag1
(g14
g3
Ntp3400
Rp3401
(dp3402
g18
I10
sg19
I0
sbag1
(g14
g3
Ntp3403
Rp3404
(dp3405
g18
I9
sg19
I0
sbag1
(g14
g3
Ntp3406
Rp3407
(dp3408
g18
I7
sg19
I0
sbag1
(g14
g3
Ntp3409
Rp3410
(dp3411
g18
I5
sg19
I0
sbag1
(g14
g3
Ntp3412
Rp3413
(dp3414
g18
I4
sg19
I0
sbag1
(g14
g3
Ntp3415
Rp3416
(dp3417
g18
I2
sg19
I0
sbag1
(g14
g3
Ntp3418
Rp3419
(dp3420
g18
I0
sg19
I0
sbasbsbag1
(g2
g3
Ntp3421
Rp3422
(dp3423
g7
g1
(g8
g3
Ntp3424
Rp3425
(dp3426
g12
(lp3427
g1
(g14
g3
Ntp3428
Rp3429
(dp3430
g18
I0
sg19
I0
sbag1
(g14
g3
Ntp3431
Rp3432
(dp3433
g18
I1
sg19
I0
sbag1
(g14
g3
Ntp3434
Rp3435
(dp3436
g18
I3
sg19
I0
sbag1
(g14
g3
Ntp3437
Rp3438
(dp3439
g18
I7
sg19
I0
sbag1
(g14
g3
Ntp3440
Rp3441
(dp3442
g18
I10
sg19
I0
sbag1
(g14
g3
Ntp3443
Rp3444
(dp3445
g18
I0
sg19
I1
sbasbsg35
g1
(g8
g3
Ntp3446
Rp3447
(dp3448
g12
(lp3449
g1
(g14
g3
Ntp3450
Rp3451
(dp3452
g18
I0
sg19
I1
sbag1
(g14
g3
Ntp3453
Rp3454
(dp3455
g18
I10
sg19
I0
sbag1
(g14
g3
Ntp3456
Rp3457
(dp3458
g18
I7
sg19
I0
sbag1
(g14
g3
Ntp3459
Rp3460
(dp3461
g18
I3
sg19
I0
sbag1
(g14
g3
Ntp3462
Rp3463
(dp3464
g18
I1
sg19
I0
sbag1
(g14
g3
Ntp3465
Rp3466
(dp3467
g18
I0
sg19
I0
sbasbsbag1
(g2
g3
Ntp3468
Rp3469
(dp3470
g7
g1
(g8
g3
Ntp3471
Rp3472
(dp3473
g12
(lp3474
g1
(g14
g3
Ntp3475
Rp3476
(dp3477
g18
I0
sg19
I0
sbag1
(g14
g3
Ntp3478
Rp3479
(dp3480
g18
I1
sg19
I0
sbag1
(g14
g3
Ntp3481
Rp3482
(dp3483
g18
I4
sg19
I0
sbag1
(g14
g3
Ntp3484
Rp3485
(dp3486
g18
I7
sg19
I0
sbag1
(g14
g3
Ntp3487
Rp3488
(dp3489
g18
I8
sg19
I0
sbag1
(g14
g3
Ntp3490
Rp3491
(dp3492
g18
I11
sg19
I0
sbag1
(g14
g3
Ntp3493
Rp3494
(dp3495
g18
I0
sg19
I1
sbasbsg35
g1
(g8
g3
Ntp3496
Rp3497
(dp3498
g12
(lp3499
g1
(g14
g3
Ntp3500
Rp3501
(dp3502
g18
I0
sg19
I1
sbag1
(g14
g3
Ntp3503
Rp3504
(dp3505
g18
I11
sg19
I0
sbag1
(g14
g3
Ntp3506
Rp3507
(dp3508
g18
I8
sg19
I0
sbag1
(g14
g3
Ntp3509
Rp3510
(dp3511
g18
I7
sg19
I0
sbag1
(g14
g3
Ntp3512
Rp3513
(dp3514
g18
I4
sg19
I0
sbag1
(g14
g3
Ntp3515
Rp3516
(dp3517
g18
I1
sg19
I0
sbag1
(g14
g3
Ntp3518
Rp3519
(dp3520
g18
I0
sg19
I0
sbasbsbag1
(g2
g3
Ntp3521
Rp3522
(dp3523
g7
g1
(g8
g3
Ntp3524
Rp3525
(dp3526
g12
(lp3527
g1
(g14
g3
Ntp3528
Rp3529
(dp3530
g18
I11
sg19
I-1
sbag1
(g14
g3
Ntp3531
Rp3532
(dp3533
g18
I0
sg19
I0
sbag1
(g14
g3
Ntp3534
Rp3535
(dp3536
g18
I4
sg19
I0
sbag1
(g14
g3
Ntp3537
Rp3538
(dp3539
g18
I6
sg19
I0
sbag1
(g14
g3
Ntp3540
Rp3541
(dp3542
g18
I7
sg19
I0
sbag1
(g14
g3
Ntp3543
Rp3544
(dp3545
g18
I11
sg19
I0
sbag1
(g14
g3
Ntp3546
Rp3547
(dp3548
g18
I0
sg19
I1
sbasbsg35
g1
(g8
g3
Ntp3549
Rp3550
(dp3551
g12
(lp3552
g1
(g14
g3
Ntp3553
Rp3554
(dp3555
g18
I0
sg19
I1
sbag1
(g14
g3
Ntp3556
Rp3557
(dp3558
g18
I11
sg19
I0
sbag1
(g14
g3
Ntp3559
Rp3560
(dp3561
g18
I8
sg19
I0
sbag1
(g14
g3
Ntp3562
Rp3563
(dp3564
g18
I7
sg19
I0
sbag1
(g14
g3
Ntp3565
Rp3566
(dp3567
g18
I6
sg19
I0
sbag1
(g14
g3
Ntp3568
Rp3569
(dp3570
g18
I4
sg19
I0
sbag1
(g14
g3
Ntp3571
Rp3572
(dp3573
g18
I1
sg19
I0
sbag1
(g14
g3
Ntp3574
Rp3575
(dp3576
g18
I0
sg19
I0
sbasbsbag1
(g2
g3
Ntp3577
Rp3578
(dp3579
g7
g1
(g8
g3
Ntp3580
Rp3581
(dp3582
g12
(lp3583
g1
(g14
g3
Ntp3584
Rp3585
(dp3586
g18
I0
sg19
I0
sbag1
(g14
g3
Ntp3587
Rp3588
(dp3589
g18
I2
sg19
I0
sbag1
(g14
g3
Ntp3590
Rp3591
(dp3592
g18
I3
sg19
I0
sbag1
(g14
g3
Ntp3593
Rp3594
(dp3595
g18
I6
sg19
I0
sbag1
(g14
g3
Ntp3596
Rp3597
(dp3598
g18
I7
sg19
I0
sbag1
(g14
g3
Ntp3599
Rp3600
(dp3601
g18
I8
sg19
I0
sbag1
(g14
g3
Ntp3602
Rp3603
(dp3604
g18
I11
sg19
I0
sbag1
(g14
g3
Ntp3605
Rp3606
(dp3607
g18
I0
sg19
I1
sbasbsg35
g1
(g8
g3
Ntp3608
Rp3609
(dp3610
g12
(lp3611
g1
(g14
g3
Ntp3612
Rp3613
(dp3614
g18
I0
sg19
I1
sbag1
(g14
g3
Ntp3615
Rp3616
(dp3617
g18
I11
sg19
I0
sbag1
(g14
g3
Ntp3618
Rp3619
(dp3620
g18
I8
sg19
I0
sbag1
(g14
g3
Ntp3621
Rp3622
(dp3623
g18
I7
sg19
I0
sbag1
(g14
g3
Ntp3624
Rp3625
(dp3626
g18
I6
sg19
I0
sbag1
(g14
g3
Ntp3627
Rp3628
(dp3629
g18
I3
sg19
I0
sbag1
(g14
g3
Ntp3630
Rp3631
(dp3632
g18
I2
sg19
I0
sbag1
(g14
g3
Ntp3633
Rp3634
(dp3635
g18
I0
sg19
I0
sbasbsbag1
(g2
g3
Ntp3636
Rp3637
(dp3638
g7
g1
(g8
g3
Ntp3639
Rp3640
(dp3641
g12
(lp3642
g1
(g14
g3
Ntp3643
Rp3644
(dp3645
g18
I0
sg19
I0
sbag1
(g14
g3
Ntp3646
Rp3647
(dp3648
g18
I2
sg19
I0
sbag1
(g14
g3
Ntp3649
Rp3650
(dp3651
g18
I3
sg19
I0
sbag1
(g14
g3
Ntp3652
Rp3653
(dp3654
g18
I6
sg19
I0
sbag1
(g14
g3
Ntp3655
Rp3656
(dp3657
g18
I7
sg19
I0
sbag1
(g14
g3
Ntp3658
Rp3659
(dp3660
g18
I9
sg19
I0
sbag1
(g14
g3
Ntp3661
Rp3662
(dp3663
g18
I0
sg19
I1
sbasbsg35
g1
(g8
g3
Ntp3664
Rp3665
(dp3666
g12
(lp3667
g1
(g14
g3
Ntp3668
Rp3669
(dp3670
g18
I0
sg19
I1
sbag1
(g14
g3
Ntp3671
Rp3672
(dp3673
g18
I8
sg19
I0
sbag1
(g14
g3
Ntp3674
Rp3675
(dp3676
g18
I7
sg19
I0
sbag1
(g14
g3
Ntp3677
Rp3678
(dp3679
g18
I6
sg19
I0
sbag1
(g14
g3
Ntp3680
Rp3681
(dp3682
g18
I3
sg19
I0
sbag1
(g14
g3
Ntp3683
Rp3684
(dp3685
g18
I2
sg19
I0
sbag1
(g14
g3
Ntp3686
Rp3687
(dp3688
g18
I0
sg19
I0
sbasbsbag1
(g2
g3
Ntp3689
Rp3690
(dp3691
g7
g1
(g8
g3
Ntp3692
Rp3693
(dp3694
g12
(lp3695
g1
(g14
g3
Ntp3696
Rp3697
(dp3698
g18
I0
sg19
I0
sbag1
(g14
g3
Ntp3699
Rp3700
(dp3701
g18
I2
sg19
I0
sbag1
(g14
g3
Ntp3702
Rp3703
(dp3704
g18
I4
sg19
I0
sbag1
(g14
g3
Ntp3705
Rp3706
(dp3707
g18
I5
sg19
I0
sbag1
(g14
g3
Ntp3708
Rp3709
(dp3710
g18
I7
sg19
I0
sbag1
(g14
g3
Ntp3711
Rp3712
(dp3713
g18
I11
sg19
I0
sbag1
(g14
g3
Ntp3714
Rp3715
(dp3716
g18
I0
sg19
I1
sbasbsg35
g1
(g8
g3
Ntp3717
Rp3718
(dp3719
g12
(lp3720
g1
(g14
g3
Ntp3721
Rp3722
(dp3723
g18
I0
sg19
I1
sbag1
(g14
g3
Ntp3724
Rp3725
(dp3726
g18
I11
sg19
I0
sbag1
(g14
g3
Ntp3727
Rp3728
(dp3729
g18
I8
sg19
I0
sbag1
(g14
g3
Ntp3730
Rp3731
(dp3732
g18
I7
sg19
I0
sbag1
(g14
g3
Ntp3733
Rp3734
(dp3735
g18
I5
sg19
I0
sbag1
(g14
g3
Ntp3736
Rp3737
(dp3738
g18
I4
sg19
I0
sbag1
(g14
g3
Ntp3739
Rp3740
(dp3741
g18
I2
sg19
I0
sbag1
(g14
g3
Ntp3742
Rp3743
(dp3744
g18
I0
sg19
I0
sbasbsbag1
(g2
g3
Ntp3745
Rp3746
(dp3747
g7
g1
(g8
g3
Ntp3748
Rp3749
(dp3750
g12
(lp3751
g1
(g14
g3
Ntp3752
Rp3753
(dp3754
g18
I0
sg19
I0
sbag1
(g14
g3
Ntp3755
Rp3756
(dp3757
g18
I2
sg19
I0
sbag1
(g14
g3
Ntp3758
Rp3759
(dp3760
g18
I5
sg19
I0
sbag1
(g14
g3
Ntp3761
Rp3762
(dp3763
g18
I9
sg19
I0
sbag1
(g14
g3
Ntp3764
Rp3765
(dp3766
g18
I0
sg19
I1
sbasbsg35
g1
(g8
g3
Ntp3767
Rp3768
(dp3769
g12
(lp3770
g1
(g14
g3
Ntp3771
Rp3772
(dp3773
g18
I0
sg19
I1
sbag1
(g14
g3
Ntp3774
Rp3775
(dp3776
g18
I9
sg19
I0
sbag1
(g14
g3
Ntp3777
Rp3778
(dp3779
g18
I5
sg19
I0
sbag1
(g14
g3
Ntp3780
Rp3781
(dp3782
g18
I2
sg19
I0
sbag1
(g14
g3
Ntp3783
Rp3784
(dp3785
g18
I0
sg19
I0
sbasbsbag1
(g2
g3
Ntp3786
Rp3787
(dp3788
g7
g1
(g8
g3
Ntp3789
Rp3790
(dp3791
g12
(lp3792
g1
(g14
g3
Ntp3793
Rp3794
(dp3795
g18
I0
sg19
I0
sbag1
(g14
g3
Ntp3796
Rp3797
(dp3798
g18
I4
sg19
I0
sbag1
(g14
g3
Ntp3799
Rp3800
(dp3801
g18
I6
sg19
I0
sbag1
(g14
g3
Ntp3802
Rp3803
(dp3804
g18
I7
sg19
I0
sbag1
(g14
g3
Ntp3805
Rp3806
(dp3807
g18
I11
sg19
I0
sbag1
(g14
g3
Ntp3808
Rp3809
(dp3810
g18
I0
sg19
I1
sbasbsg35
g1
(g8
g3
Ntp3811
Rp3812
(dp3813
g12
(lp3814
g1
(g14
g3
Ntp3815
Rp3816
(dp3817
g18
I0
sg19
I1
sbag1
(g14
g3
Ntp3818
Rp3819
(dp3820
g18
I11
sg19
I0
sbag1
(g14
g3
Ntp3821
Rp3822
(dp3823
g18
I7
sg19
I0
sbag1
(g14
g3
Ntp3824
Rp3825
(dp3826
g18
I6
sg19
I0
sbag1
(g14
g3
Ntp3827
Rp3828
(dp3829
g18
I4
sg19
I0
sbag1
(g14
g3
Ntp3830
Rp3831
(dp3832
g18
I0
sg19
I0
sbasbsbag1
(g2
g3
Ntp3833
Rp3834
(dp3835
g7
g1
(g8
g3
Ntp3836
Rp3837
(dp3838
g12
(lp3839
g1
(g14
g3
Ntp3840
Rp3841
(dp3842
g18
I0
sg19
I0
sbag1
(g14
g3
Ntp3843
Rp3844
(dp3845
g18
I1
sg19
I0
sbag1
(g14
g3
Ntp3846
Rp3847
(dp3848
g18
I4
sg19
I0
sbag1
(g14
g3
Ntp3849
Rp3850
(dp3851
g18
I5
sg19
I0
sbag1
(g14
g3
Ntp3852
Rp3853
(dp3854
g18
I7
sg19
I0
sbag1
(g14
g3
Ntp3855
Rp3856
(dp3857
g18
I8
sg19
I0
sbag1
(g14
g3
Ntp3858
Rp3859
(dp3860
g18
I11
sg19
I0
sbag1
(g14
g3
Ntp3861
Rp3862
(dp3863
g18
I0
sg19
I1
sbasbsg35
g1
(g8
g3
Ntp3864
Rp3865
(dp3866
g12
(lp3867
g1
(g14
g3
Ntp3868
Rp3869
(dp3870
g18
I0
sg19
I1
sbag1
(g14
g3
Ntp3871
Rp3872
(dp3873
g18
I11
sg19
I0
sbag1
(g14
g3
Ntp3874
Rp3875
(dp3876
g18
I8
sg19
I0
sbag1
(g14
g3
Ntp3877
Rp3878
(dp3879
g18
I7
sg19
I0
sbag1
(g14
g3
Ntp3880
Rp3881
(dp3882
g18
I5
sg19
I0
sbag1
(g14
g3
Ntp3883
Rp3884
(dp3885
g18
I4
sg19
I0
sbag1
(g14
g3
Ntp3886
Rp3887
(dp3888
g18
I1
sg19
I0
sbag1
(g14
g3
Ntp3889
Rp3890
(dp3891
g18
I0
sg19
I0
sbasbsbag1
(g2
g3
Ntp3892
Rp3893
(dp3894
g7
g1
(g8
g3
Ntp3895
Rp3896
(dp3897
g12
(lp3898
g1
(g14
g3
Ntp3899
Rp3900
(dp3901
g18
I0
sg19
I0
sbag1
(g14
g3
Ntp3902
Rp3903
(dp3904
g18
I3
sg19
I0
sbag1
(g14
g3
Ntp3905
Rp3906
(dp3907
g18
I5
sg19
I0
sbag1
(g14
g3
Ntp3908
Rp3909
(dp3910
g18
I9
sg19
I0
sbag1
(g14
g3
Ntp3911
Rp3912
(dp3913
g18
I10
sg19
I0
sbag1
(g14
g3
Ntp3914
Rp3915
(dp3916
g18
I0
sg19
I1
sbasbsg35
g1
(g8
g3
Ntp3917
Rp3918
(dp3919
g12
(lp3920
g1
(g14
g3
Ntp3921
Rp3922
(dp3923
g18
I0
sg19
I1
sbag1
(g14
g3
Ntp3924
Rp3925
(dp3926
g18
I10
sg19
I0
sbag1
(g14
g3
Ntp3927
Rp3928
(dp3929
g18
I9
sg19
I0
sbag1
(g14
g3
Ntp3930
Rp3931
(dp3932
g18
I5
sg19
I0
sbag1
(g14
g3
Ntp3933
Rp3934
(dp3935
g18
I3
sg19
I0
sbag1
(g14
g3
Ntp3936
Rp3937
(dp3938
g18
I0
sg19
I0
sbasbsbag1
(g2
g3
Ntp3939
Rp3940
(dp3941
g7
g1
(g8
g3
Ntp3942
Rp3943
(dp3944
g12
(lp3945
g1
(g14
g3
Ntp3946
Rp3947
(dp3948
g18
I0
sg19
I0
sbag1
(g14
g3
Ntp3949
Rp3950
(dp3951
g18
I1
sg19
I0
sbag1
(g14
g3
Ntp3952
Rp3953
(dp3954
g18
I4
sg19
I0
sbag1
(g14
g3
Ntp3955
Rp3956
(dp3957
g18
I6
sg19
I0
sbag1
(g14
g3
Ntp3958
Rp3959
(dp3960
g18
I7
sg19
I0
sbag1
(g14
g3
Ntp3961
Rp3962
(dp3963
g18
I11
sg19
I0
sbag1
(g14
g3
Ntp3964
Rp3965
(dp3966
g18
I0
sg19
I1
sbasbsg35
g1
(g8
g3
Ntp3967
Rp3968
(dp3969
g12
(lp3970
g1
(g14
g3
Ntp3971
Rp3972
(dp3973
g18
I0
sg19
I1
sbag1
(g14
g3
Ntp3974
Rp3975
(dp3976
g18
I11
sg19
I0
sbag1
(g14
g3
Ntp3977
Rp3978
(dp3979
g18
I7
sg19
I0
sbag1
(g14
g3
Ntp3980
Rp3981
(dp3982
g18
I6
sg19
I0
sbag1
(g14
g3
Ntp3983
Rp3984
(dp3985
g18
I4
sg19
I0
sbag1
(g14
g3
Ntp3986
Rp3987
(dp3988
g18
I1
sg19
I0
sbag1
(g14
g3
Ntp3989
Rp3990
(dp3991
g18
I0
sg19
I0
sbasbsbag1
(g2
g3
Ntp3992
Rp3993
(dp3994
g7
g1
(g8
g3
Ntp3995
Rp3996
(dp3997
g12
(lp3998
g1
(g14
g3
Ntp3999
Rp4000
(dp4001
g18
I0
sg19
I0
sbag1
(g14
g3
Ntp4002
Rp4003
(dp4004
g18
I2
sg19
I0
sbag1
(g14
g3
Ntp4005
Rp4006
(dp4007
g18
I3
sg19
I0
sbag1
(g14
g3
Ntp4008
Rp4009
(dp4010
g18
I5
sg19
I0
sbag1
(g14
g3
Ntp4011
Rp4012
(dp4013
g18
I9
sg19
I0
sbag1
(g14
g3
Ntp4014
Rp4015
(dp4016
g18
I11
sg19
I0
sbag1
(g14
g3
Ntp4017
Rp4018
(dp4019
g18
I0
sg19
I1
sbasbsg35
g1
(g8
g3
Ntp4020
Rp4021
(dp4022
g12
(lp4023
g1
(g14
g3
Ntp4024
Rp4025
(dp4026
g18
I0
sg19
I1
sbag1
(g14
g3
Ntp4027
Rp4028
(dp4029
g18
I11
sg19
I0
sbag1
(g14
g3
Ntp4030
Rp4031
(dp4032
g18
I9
sg19
I0
sbag1
(g14
g3
Ntp4033
Rp4034
(dp4035
g18
I5
sg19
I0
sbag1
(g14
g3
Ntp4036
Rp4037
(dp4038
g18
I3
sg19
I0
sbag1
(g14
g3
Ntp4039
Rp4040
(dp4041
g18
I2
sg19
I0
sbag1
(g14
g3
Ntp4042
Rp4043
(dp4044
g18
I0
sg19
I0
sbasbsbag1
(g2
g3
Ntp4045
Rp4046
(dp4047
g7
g1
(g8
g3
Ntp4048
Rp4049
(dp4050
g12
(lp4051
g1
(g14
g3
Ntp4052
Rp4053
(dp4054
g18
I0
sg19
I0
sbag1
(g14
g3
Ntp4055
Rp4056
(dp4057
g18
I1
sg19
I0
sbag1
(g14
g3
Ntp4058
Rp4059
(dp4060
g18
I4
sg19
I0
sbag1
(g14
g3
Ntp4061
Rp4062
(dp4063
g18
I5
sg19
I0
sbag1
(g14
g3
Ntp4064
Rp4065
(dp4066
g18
I7
sg19
I0
sbag1
(g14
g3
Ntp4067
Rp4068
(dp4069
g18
I8
sg19
I0
sbag1
(g14
g3
Ntp4070
Rp4071
(dp4072
g18
I11
sg19
I0
sbag1
(g14
g3
Ntp4073
Rp4074
(dp4075
g18
I0
sg19
I1
sbasbsg35
g1
(g8
g3
Ntp4076
Rp4077
(dp4078
g12
(lp4079
g1
(g14
g3
Ntp4080
Rp4081
(dp4082
g18
I0
sg19
I1
sbag1
(g14
g3
Ntp4083
Rp4084
(dp4085
g18
I11
sg19
I0
sbag1
(g14
g3
Ntp4086
Rp4087
(dp4088
g18
I8
sg19
I0
sbag1
(g14
g3
Ntp4089
Rp4090
(dp4091
g18
I7
sg19
I0
sbag1
(g14
g3
Ntp4092
Rp4093
(dp4094
g18
I5
sg19
I0
sbag1
(g14
g3
Ntp4095
Rp4096
(dp4097
g18
I4
sg19
I0
sbag1
(g14
g3
Ntp4098
Rp4099
(dp4100
g18
I1
sg19
I0
sbag1
(g14
g3
Ntp4101
Rp4102
(dp4103
g18
I0
sg19
I0
sbasbsbag1
(g2
g3
Ntp4104
Rp4105
(dp4106
g7
g1
(g8
g3
Ntp4107
Rp4108
(dp4109
g12
(lp4110
g1
(g14
g3
Ntp4111
Rp4112
(dp4113
g18
I0
sg19
I0
sbag1
(g14
g3
Ntp4114
Rp4115
(dp4116
g18
I1
sg19
I0
sbag1
(g14
g3
Ntp4117
Rp4118
(dp4119
g18
I3
sg19
I0
sbag1
(g14
g3
Ntp4120
Rp4121
(dp4122
g18
I6
sg19
I0
sbag1
(g14
g3
Ntp4123
Rp4124
(dp4125
g18
I8
sg19
I0
sbag1
(g14
g3
Ntp4126
Rp4127
(dp4128
g18
I11
sg19
I0
sbag1
(g14
g3
Ntp4129
Rp4130
(dp4131
g18
I0
sg19
I1
sbasbsg35
g1
(g8
g3
Ntp4132
Rp4133
(dp4134
g12
(lp4135
g1
(g14
g3
Ntp4136
Rp4137
(dp4138
g18
I0
sg19
I1
sbag1
(g14
g3
Ntp4139
Rp4140
(dp4141
g18
I11
sg19
I0
sbag1
(g14
g3
Ntp4142
Rp4143
(dp4144
g18
I8
sg19
I0
sbag1
(g14
g3
Ntp4145
Rp4146
(dp4147
g18
I6
sg19
I0
sbag1
(g14
g3
Ntp4148
Rp4149
(dp4150
g18
I3
sg19
I0
sbag1
(g14
g3
Ntp4151
Rp4152
(dp4153
g18
I1
sg19
I0
sbag1
(g14
g3
Ntp4154
Rp4155
(dp4156
g18
I0
sg19
I0
sbasbsbag1
(g2
g3
Ntp4157
Rp4158
(dp4159
g7
g1
(g8
g3
Ntp4160
Rp4161
(dp4162
g12
(lp4163
g1
(g14
g3
Ntp4164
Rp4165
(dp4166
g18
I0
sg19
I0
sbag1
(g14
g3
Ntp4167
Rp4168
(dp4169
g18
I1
sg19
I0
sbag1
(g14
g3
Ntp4170
Rp4171
(dp4172
g18
I4
sg19
I0
sbag1
(g14
g3
Ntp4173
Rp4174
(dp4175
g18
I5
sg19
I0
sbag1
(g14
g3
Ntp4176
Rp4177
(dp4178
g18
I6
sg19
I0
sbag1
(g14
g3
Ntp4179
Rp4180
(dp4181
g18
I7
sg19
I0
sbag1
(g14
g3
Ntp4182
Rp4183
(dp4184
g18
I8
sg19
I0
sbag1
(g14
g3
Ntp4185
Rp4186
(dp4187
g18
I11
sg19
I0
sbag1
(g14
g3
Ntp4188
Rp4189
(dp4190
g18
I0
sg19
I1
sbasbsg35
g1
(g8
g3
Ntp4191
Rp4192
(dp4193
g12
(lp4194
g1
(g14
g3
Ntp4195
Rp4196
(dp4197
g18
I0
sg19
I1
sbag1
(g14
g3
Ntp4198
Rp4199
(dp4200
g18
I11
sg19
I0
sbag1
(g14
g3
Ntp4201
Rp4202
(dp4203
g18
I8
sg19
I0
sbag1
(g14
g3
Ntp4204
Rp4205
(dp4206
g18
I7
sg19
I0
sbag1
(g14
g3
Ntp4207
Rp4208
(dp4209
g18
I6
sg19
I0
sbag1
(g14
g3
Ntp4210
Rp4211
(dp4212
g18
I5
sg19
I0
sbag1
(g14
g3
Ntp4213
Rp4214
(dp4215
g18
I4
sg19
I0
sbag1
(g14
g3
Ntp4216
Rp4217
(dp4218
g18
I2
sg19
I0
sbag1
(g14
g3
Ntp4219
Rp4220
(dp4221
g18
I0
sg19
I0
sbasbsbag1
(g2
g3
Ntp4222
Rp4223
(dp4224
g7
g1
(g8
g3
Ntp4225
Rp4226
(dp4227
g12
(lp4228
g1
(g14
g3
Ntp4229
Rp4230
(dp4231
g18
I0
sg19
I0
sbag1
(g14
g3
Ntp4232
Rp4233
(dp4234
g18
I4
sg19
I0
sbag1
(g14
g3
Ntp4235
Rp4236
(dp4237
g18
I6
sg19
I0
sbag1
(g14
g3
Ntp4238
Rp4239
(dp4240
g18
I7
sg19
I0
sbag1
(g14
g3
Ntp4241
Rp4242
(dp4243
g18
I11
sg19
I0
sbag1
(g14
g3
Ntp4244
Rp4245
(dp4246
g18
I0
sg19
I1
sbasbsg35
g1
(g8
g3
Ntp4247
Rp4248
(dp4249
g12
(lp4250
g1
(g14
g3
Ntp4251
Rp4252
(dp4253
g18
I0
sg19
I1
sbag1
(g14
g3
Ntp4254
Rp4255
(dp4256
g18
I9
sg19
I0
sbag1
(g14
g3
Ntp4257
Rp4258
(dp4259
g18
I7
sg19
I0
sbag1
(g14
g3
Ntp4260
Rp4261
(dp4262
g18
I6
sg19
I0
sbag1
(g14
g3
Ntp4263
Rp4264
(dp4265
g18
I4
sg19
I0
sbag1
(g14
g3
Ntp4266
Rp4267
(dp4268
g18
I1
sg19
I0
sbag1
(g14
g3
Ntp4269
Rp4270
(dp4271
g18
I0
sg19
I0
sbasbsbag1
(g2
g3
Ntp4272
Rp4273
(dp4274
g7
g1
(g8
g3
Ntp4275
Rp4276
(dp4277
g12
(lp4278
g1
(g14
g3
Ntp4279
Rp4280
(dp4281
g18
I0
sg19
I0
sbag1
(g14
g3
Ntp4282
Rp4283
(dp4284
g18
I4
sg19
I0
sbag1
(g14
g3
Ntp4285
Rp4286
(dp4287
g18
I5
sg19
I0
sbag1
(g14
g3
Ntp4288
Rp4289
(dp4290
g18
I7
sg19
I0
sbag1
(g14
g3
Ntp4291
Rp4292
(dp4293
g18
I8
sg19
I0
sbag1
(g14
g3
Ntp4294
Rp4295
(dp4296
g18
I11
sg19
I0
sbag1
(g14
g3
Ntp4297
Rp4298
(dp4299
g18
I0
sg19
I1
sbasbsg35
g1
(g8
g3
Ntp4300
Rp4301
(dp4302
g12
(lp4303
g1
(g14
g3
Ntp4304
Rp4305
(dp4306
g18
I0
sg19
I1
sbag1
(g14
g3
Ntp4307
Rp4308
(dp4309
g18
I11
sg19
I0
sbag1
(g14
g3
Ntp4310
Rp4311
(dp4312
g18
I8
sg19
I0
sbag1
(g14
g3
Ntp4313
Rp4314
(dp4315
g18
I7
sg19
I0
sbag1
(g14
g3
Ntp4316
Rp4317
(dp4318
g18
I5
sg19
I0
sbag1
(g14
g3
Ntp4319
Rp4320
(dp4321
g18
I4
sg19
I0
sbag1
(g14
g3
Ntp4322
Rp4323
(dp4324
g18
I0
sg19
I0
sbasbsbag1
(g2
g3
Ntp4325
Rp4326
(dp4327
g7
g1
(g8
g3
Ntp4328
Rp4329
(dp4330
g12
(lp4331
g1
(g14
g3
Ntp4332
Rp4333
(dp4334
g18
I0
sg19
I0
sbag1
(g14
g3
Ntp4335
Rp4336
(dp4337
g18
I2
sg19
I0
sbag1
(g14
g3
Ntp4338
Rp4339
(dp4340
g18
I5
sg19
I0
sbag1
(g14
g3
Ntp4341
Rp4342
(dp4343
g18
I7
sg19
I0
sbag1
(g14
g3
Ntp4344
Rp4345
(dp4346
g18
I9
sg19
I0
sbag1
(g14
g3
Ntp4347
Rp4348
(dp4349
g18
I0
sg19
I1
sbasbsg35
g1
(g8
g3
Ntp4350
Rp4351
(dp4352
g12
(lp4353
g1
(g14
g3
Ntp4354
Rp4355
(dp4356
g18
I0
sg19
I1
sbag1
(g14
g3
Ntp4357
Rp4358
(dp4359
g18
I10
sg19
I0
sbag1
(g14
g3
Ntp4360
Rp4361
(dp4362
g18
I7
sg19
I0
sbag1
(g14
g3
Ntp4363
Rp4364
(dp4365
g18
I5
sg19
I0
sbag1
(g14
g3
Ntp4366
Rp4367
(dp4368
g18
I2
sg19
I0
sbag1
(g14
g3
Ntp4369
Rp4370
(dp4371
g18
I0
sg19
I0
sbasbsbag1
(g2
g3
Ntp4372
Rp4373
(dp4374
g7
g1
(g8
g3
Ntp4375
Rp4376
(dp4377
g12
(lp4378
g1
(g14
g3
Ntp4379
Rp4380
(dp4381
g18
I0
sg19
I0
sbag1
(g14
g3
Ntp4382
Rp4383
(dp4384
g18
I1
sg19
I0
sbag1
(g14
g3
Ntp4385
Rp4386
(dp4387
g18
I5
sg19
I0
sbag1
(g14
g3
Ntp4388
Rp4389
(dp4390
g18
I8
sg19
I0
sbag1
(g14
g3
Ntp4391
Rp4392
(dp4393
g18
I10
sg19
I0
sbag1
(g14
g3
Ntp4394
Rp4395
(dp4396
g18
I0
sg19
I1
sbasbsg35
g1
(g8
g3
Ntp4397
Rp4398
(dp4399
g12
(lp4400
g1
(g14
g3
Ntp4401
Rp4402
(dp4403
g18
I0
sg19
I1
sbag1
(g14
g3
Ntp4404
Rp4405
(dp4406
g18
I10
sg19
I0
sbag1
(g14
g3
Ntp4407
Rp4408
(dp4409
g18
I8
sg19
I0
sbag1
(g14
g3
Ntp4410
Rp4411
(dp4412
g18
I5
sg19
I0
sbag1
(g14
g3
Ntp4413
Rp4414
(dp4415
g18
I1
sg19
I0
sbag1
(g14
g3
Ntp4416
Rp4417
(dp4418
g18
I0
sg19
I0
sbasbsbag1
(g2
g3
Ntp4419
Rp4420
(dp4421
g7
g1
(g8
g3
Ntp4422
Rp4423
(dp4424
g12
(lp4425
g1
(g14
g3
Ntp4426
Rp4427
(dp4428
g18
I0
sg19
I0
sbag1
(g14
g3
Ntp4429
Rp4430
(dp4431
g18
I4
sg19
I0
sbag1
(g14
g3
Ntp4432
Rp4433
(dp4434
g18
I5
sg19
I0
sbag1
(g14
g3
Ntp4435
Rp4436
(dp4437
g18
I7
sg19
I0
sbag1
(g14
g3
Ntp4438
Rp4439
(dp4440
g18
I10
sg19
I0
sbag1
(g14
g3
Ntp4441
Rp4442
(dp4443
g18
I0
sg19
I1
sbasbsg35
g1
(g8
g3
Ntp4444
Rp4445
(dp4446
g12
(lp4447
g1
(g14
g3
Ntp4448
Rp4449
(dp4450
g18
I0
sg19
I1
sbag1
(g14
g3
Ntp4451
Rp4452
(dp4453
g18
I10
sg19
I0
sbag1
(g14
g3
Ntp4454
Rp4455
(dp4456
g18
I9
sg19
I0
sbag1
(g14
g3
Ntp4457
Rp4458
(dp4459
g18
I7
sg19
I0
sbag1
(g14
g3
Ntp4460
Rp4461
(dp4462
g18
I5
sg19
I0
sbag1
(g14
g3
Ntp4463
Rp4464
(dp4465
g18
I4
sg19
I0
sbag1
(g14
g3
Ntp4466
Rp4467
(dp4468
g18
I2
sg19
I0
sbag1
(g14
g3
Ntp4469
Rp4470
(dp4471
g18
I0
sg19
I0
sbasbsbag1
(g2
g3
Ntp4472
Rp4473
(dp4474
g7
g1
(g8
g3
Ntp4475
Rp4476
(dp4477
g12
(lp4478
g1
(g14
g3
Ntp4479
Rp4480
(dp4481
g18
I0
sg19
I0
sbag1
(g14
g3
Ntp4482
Rp4483
(dp4484
g18
I4
sg19
I0
sbag1
(g14
g3
Ntp4485
Rp4486
(dp4487
g18
I5
sg19
I0
sbag1
(g14
g3
Ntp4488
Rp4489
(dp4490
g18
I7
sg19
I0
sbag1
(g14
g3
Ntp4491
Rp4492
(dp4493
g18
I9
sg19
I0
sbag1
(g14
g3
Ntp4494
Rp4495
(dp4496
g18
I11
sg19
I0
sbag1
(g14
g3
Ntp4497
Rp4498
(dp4499
g18
I0
sg19
I1
sbasbsg35
g1
(g8
g3
Ntp4500
Rp4501
(dp4502
g12
(lp4503
g1
(g14
g3
Ntp4504
Rp4505
(dp4506
g18
I0
sg19
I1
sbag1
(g14
g3
Ntp4507
Rp4508
(dp4509
g18
I10
sg19
I0
sbag1
(g14
g3
Ntp4510
Rp4511
(dp4512
g18
I9
sg19
I0
sbag1
(g14
g3
Ntp4513
Rp4514
(dp4515
g18
I7
sg19
I0
sbag1
(g14
g3
Ntp4516
Rp4517
(dp4518
g18
I5
sg19
I0
sbag1
(g14
g3
Ntp4519
Rp4520
(dp4521
g18
I4
sg19
I0
sbag1
(g14
g3
Ntp4522
Rp4523
(dp4524
g18
I2
sg19
I0
sbag1
(g14
g3
Ntp4525
Rp4526
(dp4527
g18
I0
sg19
I0
sbasbsbag1
(g2
g3
Ntp4528
Rp4529
(dp4530
g7
g1
(g8
g3
Ntp4531
Rp4532
(dp4533
g12
(lp4534
g1
(g14
g3
Ntp4535
Rp4536
(dp4537
g18
I0
sg19
I0
sbag1
(g14
g3
Ntp4538
Rp4539
(dp4540
g18
I3
sg19
I0
sbag1
(g14
g3
Ntp4541
Rp4542
(dp4543
g18
I5
sg19
I0
sbag1
(g14
g3
Ntp4544
Rp4545
(dp4546
g18
I9
sg19
I0
sbag1
(g14
g3
Ntp4547
Rp4548
(dp4549
g18
I10
sg19
I0
sbag1
(g14
g3
Ntp4550
Rp4551
(dp4552
g18
I0
sg19
I1
sbasbsg35
g1
(g8
g3
Ntp4553
Rp4554
(dp4555
g12
(lp4556
g1
(g14
g3
Ntp4557
Rp4558
(dp4559
g18
I0
sg19
I1
sbag1
(g14
g3
Ntp4560
Rp4561
(dp4562
g18
I10
sg19
I0
sbag1
(g14
g3
Ntp4563
Rp4564
(dp4565
g18
I9
sg19
I0
sbag1
(g14
g3
Ntp4566
Rp4567
(dp4568
g18
I5
sg19
I0
sbag1
(g14
g3
Ntp4569
Rp4570
(dp4571
g18
I3
sg19
I0
sbag1
(g14
g3
Ntp4572
Rp4573
(dp4574
g18
I2
sg19
I0
sbag1
(g14
g3
Ntp4575
Rp4576
(dp4577
g18
I0
sg19
I0
sbasbsbag1
(g2
g3
Ntp4578
Rp4579
(dp4580
g7
g1
(g8
g3
Ntp4581
Rp4582
(dp4583
g12
(lp4584
g1
(g14
g3
Ntp4585
Rp4586
(dp4587
g18
I0
sg19
I0
sbag1
(g14
g3
Ntp4588
Rp4589
(dp4590
g18
I1
sg19
I0
sbag1
(g14
g3
Ntp4591
Rp4592
(dp4593
g18
I5
sg19
I0
sbag1
(g14
g3
Ntp4594
Rp4595
(dp4596
g18
I7
sg19
I0
sbag1
(g14
g3
Ntp4597
Rp4598
(dp4599
g18
I8
sg19
I0
sbag1
(g14
g3
Ntp4600
Rp4601
(dp4602
g18
I0
sg19
I1
sbasbsg35
g1
(g8
g3
Ntp4603
Rp4604
(dp4605
g12
(lp4606
g1
(g14
g3
Ntp4607
Rp4608
(dp4609
g18
I0
sg19
I1
sbag1
(g14
g3
Ntp4610
Rp4611
(dp4612
g18
I8
sg19
I0
sbag1
(g14
g3
Ntp4613
Rp4614
(dp4615
g18
I7
sg19
I0
sbag1
(g14
g3
Ntp4616
Rp4617
(dp4618
g18
I5
sg19
I0
sbag1
(g14
g3
Ntp4619
Rp4620
(dp4621
g18
I1
sg19
I0
sbag1
(g14
g3
Ntp4622
Rp4623
(dp4624
g18
I0
sg19
I0
sbasbsbag1
(g2
g3
Ntp4625
Rp4626
(dp4627
g7
g1
(g8
g3
Ntp4628
Rp4629
(dp4630
g12
(lp4631
g1
(g14
g3
Ntp4632
Rp4633
(dp4634
g18
I0
sg19
I0
sbag1
(g14
g3
Ntp4635
Rp4636
(dp4637
g18
I1
sg19
I0
sbag1
(g14
g3
Ntp4638
Rp4639
(dp4640
g18
I3
sg19
I0
sbag1
(g14
g3
Ntp4641
Rp4642
(dp4643
g18
I6
sg19
I0
sbag1
(g14
g3
Ntp4644
Rp4645
(dp4646
g18
I8
sg19
I0
sbag1
(g14
g3
Ntp4647
Rp4648
(dp4649
g18
I0
sg19
I1
sbasbsg35
g1
(g8
g3
Ntp4650
Rp4651
(dp4652
g12
(lp4653
g1
(g14
g3
Ntp4654
Rp4655
(dp4656
g18
I0
sg19
I1
sbag1
(g14
g3
Ntp4657
Rp4658
(dp4659
g18
I8
sg19
I0
sbag1
(g14
g3
Ntp4660
Rp4661
(dp4662
g18
I6
sg19
I0
sbag1
(g14
g3
Ntp4663
Rp4664
(dp4665
g18
I3
sg19
I0
sbag1
(g14
g3
Ntp4666
Rp4667
(dp4668
g18
I1
sg19
I0
sbag1
(g14
g3
Ntp4669
Rp4670
(dp4671
g18
I0
sg19
I0
sbasbsbag1
(g2
g3
Ntp4672
Rp4673
(dp4674
g7
g1
(g8
g3
Ntp4675
Rp4676
(dp4677
g12
(lp4678
g1
(g14
g3
Ntp4679
Rp4680
(dp4681
g18
I0
sg19
I0
sbag1
(g14
g3
Ntp4682
Rp4683
(dp4684
g18
I2
sg19
I0
sbag1
(g14
g3
Ntp4685
Rp4686
(dp4687
g18
I3
sg19
I0
sbag1
(g14
g3
Ntp4688
Rp4689
(dp4690
g18
I5
sg19
I0
sbag1
(g14
g3
Ntp4691
Rp4692
(dp4693
g18
I7
sg19
I0
sbag1
(g14
g3
Ntp4694
Rp4695
(dp4696
g18
I8
sg19
I0
sbag1
(g14
g3
Ntp4697
Rp4698
(dp4699
g18
I11
sg19
I0
sbag1
(g14
g3
Ntp4700
Rp4701
(dp4702
g18
I0
sg19
I1
sbasbsg35
g1
(g8
g3
Ntp4703
Rp4704
(dp4705
g12
(lp4706
g1
(g14
g3
Ntp4707
Rp4708
(dp4709
g18
I0
sg19
I1
sbag1
(g14
g3
Ntp4710
Rp4711
(dp4712
g18
I8
sg19
I0
sbag1
(g14
g3
Ntp4713
Rp4714
(dp4715
g18
I7
sg19
I0
sbag1
(g14
g3
Ntp4716
Rp4717
(dp4718
g18
I5
sg19
I0
sbag1
(g14
g3
Ntp4719
Rp4720
(dp4721
g18
I2
sg19
I0
sbag1
(g14
g3
Ntp4722
Rp4723
(dp4724
g18
I0
sg19
I0
sbasbsbag1
(g2
g3
Ntp4725
Rp4726
(dp4727
g7
g1
(g8
g3
Ntp4728
Rp4729
(dp4730
g12
(lp4731
g1
(g14
g3
Ntp4732
Rp4733
(dp4734
g18
I0
sg19
I0
sbag1
(g14
g3
Ntp4735
Rp4736
(dp4737
g18
I3
sg19
I0
sbag1
(g14
g3
Ntp4738
Rp4739
(dp4740
g18
I5
sg19
I0
sbag1
(g14
g3
Ntp4741
Rp4742
(dp4743
g18
I7
sg19
I0
sbag1
(g14
g3
Ntp4744
Rp4745
(dp4746
g18
I9
sg19
I0
sbag1
(g14
g3
Ntp4747
Rp4748
(dp4749
g18
I0
sg19
I1
sbasbsg35
g1
(g8
g3
Ntp4750
Rp4751
(dp4752
g12
(lp4753
g1
(g14
g3
Ntp4754
Rp4755
(dp4756
g18
I0
sg19
I1
sbag1
(g14
g3
Ntp4757
Rp4758
(dp4759
g18
I10
sg19
I0
sbag1
(g14
g3
Ntp4760
Rp4761
(dp4762
g18
I9
sg19
I0
sbag1
(g14
g3
Ntp4763
Rp4764
(dp4765
g18
I7
sg19
I0
sbag1
(g14
g3
Ntp4766
Rp4767
(dp4768
g18
I5
sg19
I0
sbag1
(g14
g3
Ntp4769
Rp4770
(dp4771
g18
I3
sg19
I0
sbag1
(g14
g3
Ntp4772
Rp4773
(dp4774
g18
I0
sg19
I0
sbasbsbag1
(g2
g3
Ntp4775
Rp4776
(dp4777
g7
g1
(g8
g3
Ntp4778
Rp4779
(dp4780
g12
(lp4781
g1
(g14
g3
Ntp4782
Rp4783
(dp4784
g18
I0
sg19
I0
sbag1
(g14
g3
Ntp4785
Rp4786
(dp4787
g18
I4
sg19
I0
sbag1
(g14
g3
Ntp4788
Rp4789
(dp4790
g18
I5
sg19
I0
sbag1
(g14
g3
Ntp4791
Rp4792
(dp4793
g18
I9
sg19
I0
sbag1
(g14
g3
Ntp4794
Rp4795
(dp4796
g18
I11
sg19
I0
sbag1
(g14
g3
Ntp4797
Rp4798
(dp4799
g18
I0
sg19
I1
sbasbsg35
g1
(g8
g3
Ntp4800
Rp4801
(dp4802
g12
(lp4803
g1
(g14
g3
Ntp4804
Rp4805
(dp4806
g18
I0
sg19
I1
sbag1
(g14
g3
Ntp4807
Rp4808
(dp4809
g18
I11
sg19
I0
sbag1
(g14
g3
Ntp4810
Rp4811
(dp4812
g18
I9
sg19
I0
sbag1
(g14
g3
Ntp4813
Rp4814
(dp4815
g18
I5
sg19
I0
sbag1
(g14
g3
Ntp4816
Rp4817
(dp4818
g18
I4
sg19
I0
sbag1
(g14
g3
Ntp4819
Rp4820
(dp4821
g18
I0
sg19
I0
sbasbsbag1
(g2
g3
Ntp4822
Rp4823
(dp4824
g7
g1
(g8
g3
Ntp4825
Rp4826
(dp4827
g12
(lp4828
g1
(g14
g3
Ntp4829
Rp4830
(dp4831
g18
I0
sg19
I0
sbag1
(g14
g3
Ntp4832
Rp4833
(dp4834
g18
I1
sg19
I0
sbag1
(g14
g3
Ntp4835
Rp4836
(dp4837
g18
I4
sg19
I0
sbag1
(g14
g3
Ntp4838
Rp4839
(dp4840
g18
I6
sg19
I0
sbag1
(g14
g3
Ntp4841
Rp4842
(dp4843
g18
I11
sg19
I0
sbag1
(g14
g3
Ntp4844
Rp4845
(dp4846
g18
I0
sg19
I1
sbasbsg35
g1
(g8
g3
Ntp4847
Rp4848
(dp4849
g12
(lp4850
g1
(g14
g3
Ntp4851
Rp4852
(dp4853
g18
I0
sg19
I1
sbag1
(g14
g3
Ntp4854
Rp4855
(dp4856
g18
I11
sg19
I0
sbag1
(g14
g3
Ntp4857
Rp4858
(dp4859
g18
I7
sg19
I0
sbag1
(g14
g3
Ntp4860
Rp4861
(dp4862
g18
I6
sg19
I0
sbag1
(g14
g3
Ntp4863
Rp4864
(dp4865
g18
I1
sg19
I0
sbag1
(g14
g3
Ntp4866
Rp4867
(dp4868
g18
I0
sg19
I0
sbasbsba.